
ATMEGA_DSP.elf:     file format elf32-avr

Sections:
Idx Name          Size      VMA       LMA       File off  Algn
  0 .data         00000010  00800200  00001836  000018ca  2**0
                  CONTENTS, ALLOC, LOAD, DATA
  1 .text         00001836  00000000  00000000  00000094  2**1
                  CONTENTS, ALLOC, LOAD, READONLY, CODE
  2 .bss          000000ea  00800210  00800210  000018da  2**0
                  ALLOC
  3 .comment      0000005c  00000000  00000000  000018da  2**0
                  CONTENTS, READONLY
  4 .note.gnu.avr.deviceinfo 00000040  00000000  00000000  00001938  2**2
                  CONTENTS, READONLY
  5 .debug_aranges 00000218  00000000  00000000  00001978  2**0
                  CONTENTS, READONLY, DEBUGGING
  6 .debug_info   0000276b  00000000  00000000  00001b90  2**0
                  CONTENTS, READONLY, DEBUGGING
  7 .debug_abbrev 00001161  00000000  00000000  000042fb  2**0
                  CONTENTS, READONLY, DEBUGGING
  8 .debug_line   0000137c  00000000  00000000  0000545c  2**0
                  CONTENTS, READONLY, DEBUGGING
  9 .debug_frame  00000590  00000000  00000000  000067d8  2**2
                  CONTENTS, READONLY, DEBUGGING
 10 .debug_str    00000aa4  00000000  00000000  00006d68  2**0
                  CONTENTS, READONLY, DEBUGGING
 11 .debug_loc    000013f0  00000000  00000000  0000780c  2**0
                  CONTENTS, READONLY, DEBUGGING
 12 .debug_ranges 00000240  00000000  00000000  00008bfc  2**0
                  CONTENTS, READONLY, DEBUGGING

Disassembly of section .text:

00000000 <__vectors>:
       0:	08 c2       	rjmp	.+1040   	; 0x412 <__ctors_end>
       2:	00 00       	nop
       4:	26 c2       	rjmp	.+1100   	; 0x452 <__bad_interrupt>
       6:	00 00       	nop
       8:	24 c2       	rjmp	.+1096   	; 0x452 <__bad_interrupt>
       a:	00 00       	nop
       c:	22 c2       	rjmp	.+1092   	; 0x452 <__bad_interrupt>
       e:	00 00       	nop
      10:	20 c2       	rjmp	.+1088   	; 0x452 <__bad_interrupt>
      12:	00 00       	nop
      14:	1e c2       	rjmp	.+1084   	; 0x452 <__bad_interrupt>
      16:	00 00       	nop
      18:	1c c2       	rjmp	.+1080   	; 0x452 <__bad_interrupt>
      1a:	00 00       	nop
      1c:	1a c2       	rjmp	.+1076   	; 0x452 <__bad_interrupt>
      1e:	00 00       	nop
      20:	18 c2       	rjmp	.+1072   	; 0x452 <__bad_interrupt>
      22:	00 00       	nop
      24:	16 c2       	rjmp	.+1068   	; 0x452 <__bad_interrupt>
      26:	00 00       	nop
      28:	14 c2       	rjmp	.+1064   	; 0x452 <__bad_interrupt>
      2a:	00 00       	nop
      2c:	12 c2       	rjmp	.+1060   	; 0x452 <__bad_interrupt>
      2e:	00 00       	nop
      30:	10 c2       	rjmp	.+1056   	; 0x452 <__bad_interrupt>
      32:	00 00       	nop
      34:	0e c2       	rjmp	.+1052   	; 0x452 <__bad_interrupt>
      36:	00 00       	nop
      38:	0c c2       	rjmp	.+1048   	; 0x452 <__bad_interrupt>
      3a:	00 00       	nop
      3c:	0a c2       	rjmp	.+1044   	; 0x452 <__bad_interrupt>
      3e:	00 00       	nop
      40:	08 c2       	rjmp	.+1040   	; 0x452 <__bad_interrupt>
      42:	00 00       	nop
      44:	06 c2       	rjmp	.+1036   	; 0x452 <__bad_interrupt>
      46:	00 00       	nop
      48:	04 c2       	rjmp	.+1032   	; 0x452 <__bad_interrupt>
      4a:	00 00       	nop
      4c:	02 c2       	rjmp	.+1028   	; 0x452 <__bad_interrupt>
      4e:	00 00       	nop
      50:	00 c2       	rjmp	.+1024   	; 0x452 <__bad_interrupt>
      52:	00 00       	nop
      54:	9f c4       	rjmp	.+2366   	; 0x994 <__vector_21>
      56:	00 00       	nop
      58:	fc c1       	rjmp	.+1016   	; 0x452 <__bad_interrupt>
      5a:	00 00       	nop
      5c:	fa c1       	rjmp	.+1012   	; 0x452 <__bad_interrupt>
      5e:	00 00       	nop
      60:	f8 c1       	rjmp	.+1008   	; 0x452 <__bad_interrupt>
      62:	00 00       	nop
      64:	f6 c1       	rjmp	.+1004   	; 0x452 <__bad_interrupt>
      66:	00 00       	nop
      68:	f4 c1       	rjmp	.+1000   	; 0x452 <__bad_interrupt>
      6a:	00 00       	nop
      6c:	f2 c1       	rjmp	.+996    	; 0x452 <__bad_interrupt>
      6e:	00 00       	nop
      70:	f0 c1       	rjmp	.+992    	; 0x452 <__bad_interrupt>
      72:	00 00       	nop
      74:	cd c4       	rjmp	.+2458   	; 0xa10 <__vector_29>
      76:	00 00       	nop
      78:	ec c1       	rjmp	.+984    	; 0x452 <__bad_interrupt>
      7a:	00 00       	nop
      7c:	ea c1       	rjmp	.+980    	; 0x452 <__bad_interrupt>
      7e:	00 00       	nop
      80:	e8 c1       	rjmp	.+976    	; 0x452 <__bad_interrupt>
      82:	00 00       	nop
      84:	e6 c1       	rjmp	.+972    	; 0x452 <__bad_interrupt>
      86:	00 00       	nop
      88:	e4 c1       	rjmp	.+968    	; 0x452 <__bad_interrupt>
      8a:	00 00       	nop
      8c:	e2 c1       	rjmp	.+964    	; 0x452 <__bad_interrupt>
      8e:	00 00       	nop
      90:	e0 c1       	rjmp	.+960    	; 0x452 <__bad_interrupt>
      92:	00 00       	nop
      94:	de c1       	rjmp	.+956    	; 0x452 <__bad_interrupt>
      96:	00 00       	nop
      98:	dc c1       	rjmp	.+952    	; 0x452 <__bad_interrupt>
      9a:	00 00       	nop
      9c:	da c1       	rjmp	.+948    	; 0x452 <__bad_interrupt>
      9e:	00 00       	nop
      a0:	d8 c1       	rjmp	.+944    	; 0x452 <__bad_interrupt>
      a2:	00 00       	nop
      a4:	d6 c1       	rjmp	.+940    	; 0x452 <__bad_interrupt>
      a6:	00 00       	nop
      a8:	d4 c1       	rjmp	.+936    	; 0x452 <__bad_interrupt>
      aa:	00 00       	nop
      ac:	d2 c1       	rjmp	.+932    	; 0x452 <__bad_interrupt>
      ae:	00 00       	nop
      b0:	d0 c1       	rjmp	.+928    	; 0x452 <__bad_interrupt>
      b2:	00 00       	nop
      b4:	ce c1       	rjmp	.+924    	; 0x452 <__bad_interrupt>
      b6:	00 00       	nop
      b8:	cc c1       	rjmp	.+920    	; 0x452 <__bad_interrupt>
      ba:	00 00       	nop
      bc:	ca c1       	rjmp	.+916    	; 0x452 <__bad_interrupt>
      be:	00 00       	nop
      c0:	c8 c1       	rjmp	.+912    	; 0x452 <__bad_interrupt>
      c2:	00 00       	nop
      c4:	c6 c1       	rjmp	.+908    	; 0x452 <__bad_interrupt>
      c6:	00 00       	nop
      c8:	c4 c1       	rjmp	.+904    	; 0x452 <__bad_interrupt>
      ca:	00 00       	nop
      cc:	c2 c1       	rjmp	.+900    	; 0x452 <__bad_interrupt>
      ce:	00 00       	nop
      d0:	c0 c1       	rjmp	.+896    	; 0x452 <__bad_interrupt>
      d2:	00 00       	nop
      d4:	be c1       	rjmp	.+892    	; 0x452 <__bad_interrupt>
      d6:	00 00       	nop
      d8:	bc c1       	rjmp	.+888    	; 0x452 <__bad_interrupt>
      da:	00 00       	nop
      dc:	ba c1       	rjmp	.+884    	; 0x452 <__bad_interrupt>
      de:	00 00       	nop
      e0:	b8 c1       	rjmp	.+880    	; 0x452 <__bad_interrupt>
      e2:	00 00       	nop
      e4:	08 4a       	sbci	r16, 0xA8	; 168
      e6:	d7 3b       	cpi	r29, 0xB7	; 183
      e8:	3b ce       	rjmp	.-906    	; 0xfffffd60 <__eeprom_end+0xff7efd60>
      ea:	01 6e       	ori	r16, 0xE1	; 225
      ec:	84 bc       	out	0x24, r8	; 36
      ee:	bf fd       	.word	0xfdbf	; ????
      f0:	c1 2f       	mov	r28, r17
      f2:	3d 6c       	ori	r19, 0xCD	; 205
      f4:	74 31       	cpi	r23, 0x14	; 20
      f6:	9a bd       	out	0x2a, r25	; 42
      f8:	56 83       	std	Z+6, r21	; 0x06
      fa:	3d da       	rcall	.-2950   	; 0xfffff576 <__eeprom_end+0xff7ef576>
      fc:	3d 00       	.word	0x003d	; ????
      fe:	c7 7f       	andi	r28, 0xF7	; 247
     100:	11 be       	out	0x31, r1	; 49
     102:	d9 e4       	ldi	r29, 0x49	; 73
     104:	bb 4c       	sbci	r27, 0xCB	; 203
     106:	3e 91       	ld	r19, -X
     108:	6b aa       	std	Y+51, r6	; 0x33
     10a:	aa be       	out	0x3a, r10	; 58
     10c:	00 00       	nop
     10e:	00 80       	ld	r0, Z
     110:	3f 00       	.word	0x003f	; ????

00000112 <__trampolines_end>:
	...
     11a:	00 00       	nop
     11c:	5f 00       	.word	0x005f	; ????
     11e:	00 00       	nop
     120:	00 00       	nop
     122:	00 00       	nop
     124:	07 00       	.word	0x0007	; ????
     126:	07 00       	.word	0x0007	; ????
     128:	00 00       	nop
     12a:	00 14       	cp	r0, r0
     12c:	7f 14       	cp	r7, r15
     12e:	7f 14       	cp	r7, r15
     130:	00 00       	nop
     132:	00 24       	eor	r0, r0
     134:	2a 7f       	andi	r18, 0xFA	; 250
     136:	2a 12       	cpse	r2, r26
     138:	00 00       	nop
     13a:	00 23       	and	r16, r16
     13c:	13 08       	sbc	r1, r3
     13e:	64 62       	ori	r22, 0x24	; 36
     140:	00 00       	nop
     142:	00 36       	cpi	r16, 0x60	; 96
     144:	49 55       	subi	r20, 0x59	; 89
     146:	22 50       	subi	r18, 0x02	; 2
     148:	00 00       	nop
     14a:	00 00       	nop
     14c:	05 03       	mulsu	r16, r21
     14e:	00 00       	nop
     150:	00 00       	nop
     152:	00 1c       	adc	r0, r0
     154:	22 41       	sbci	r18, 0x12	; 18
     156:	00 00       	nop
     158:	00 00       	nop
     15a:	00 41       	sbci	r16, 0x10	; 16
     15c:	22 1c       	adc	r2, r2
     15e:	00 00       	nop
     160:	00 00       	nop
     162:	00 08       	sbc	r0, r0
     164:	2a 1c       	adc	r2, r10
     166:	2a 08       	sbc	r2, r10
     168:	00 00       	nop
     16a:	00 08       	sbc	r0, r0
     16c:	08 3e       	cpi	r16, 0xE8	; 232
     16e:	08 08       	sbc	r0, r8
     170:	00 00       	nop
     172:	00 a0       	ldd	r0, Z+32	; 0x20
     174:	60 00       	.word	0x0060	; ????
     176:	00 00       	nop
     178:	00 00       	nop
     17a:	00 08       	sbc	r0, r0
     17c:	08 08       	sbc	r0, r8
     17e:	08 08       	sbc	r0, r8
     180:	00 00       	nop
     182:	00 60       	ori	r16, 0x00	; 0
     184:	60 00       	.word	0x0060	; ????
     186:	00 00       	nop
     188:	00 00       	nop
     18a:	00 20       	and	r0, r0
     18c:	10 08       	sbc	r1, r0
     18e:	04 02       	muls	r16, r20
     190:	00 00       	nop
     192:	00 3e       	cpi	r16, 0xE0	; 224
     194:	51 49       	sbci	r21, 0x91	; 145
     196:	45 3e       	cpi	r20, 0xE5	; 229
     198:	00 00       	nop
     19a:	00 00       	nop
     19c:	42 7f       	andi	r20, 0xF2	; 242
     19e:	40 00       	.word	0x0040	; ????
     1a0:	00 00       	nop
     1a2:	00 62       	ori	r16, 0x20	; 32
     1a4:	51 49       	sbci	r21, 0x91	; 145
     1a6:	49 46       	sbci	r20, 0x69	; 105
     1a8:	00 00       	nop
     1aa:	00 22       	and	r0, r16
     1ac:	41 49       	sbci	r20, 0x91	; 145
     1ae:	49 36       	cpi	r20, 0x69	; 105
     1b0:	00 00       	nop
     1b2:	00 18       	sub	r0, r0
     1b4:	14 12       	cpse	r1, r20
     1b6:	7f 10       	cpse	r7, r15
     1b8:	00 00       	nop
     1ba:	00 27       	eor	r16, r16
     1bc:	45 45       	sbci	r20, 0x55	; 85
     1be:	45 39       	cpi	r20, 0x95	; 149
     1c0:	00 00       	nop
     1c2:	00 3c       	cpi	r16, 0xC0	; 192
     1c4:	4a 49       	sbci	r20, 0x9A	; 154
     1c6:	49 30       	cpi	r20, 0x09	; 9
     1c8:	00 00       	nop
     1ca:	00 01       	movw	r0, r0
     1cc:	71 09       	sbc	r23, r1
     1ce:	05 03       	mulsu	r16, r21
     1d0:	00 00       	nop
     1d2:	00 36       	cpi	r16, 0x60	; 96
     1d4:	49 49       	sbci	r20, 0x99	; 153
     1d6:	49 36       	cpi	r20, 0x69	; 105
     1d8:	00 00       	nop
     1da:	00 06       	cpc	r0, r16
     1dc:	49 49       	sbci	r20, 0x99	; 153
     1de:	29 1e       	adc	r2, r25
     1e0:	00 00       	nop
     1e2:	00 00       	nop
     1e4:	36 36       	cpi	r19, 0x66	; 102
     1e6:	00 00       	nop
     1e8:	00 00       	nop
     1ea:	00 00       	nop
     1ec:	ac 6c       	ori	r26, 0xCC	; 204
     1ee:	00 00       	nop
     1f0:	00 00       	nop
     1f2:	00 08       	sbc	r0, r0
     1f4:	14 22       	and	r1, r20
     1f6:	41 00       	.word	0x0041	; ????
     1f8:	00 00       	nop
     1fa:	00 14       	cp	r0, r0
     1fc:	14 14       	cp	r1, r4
     1fe:	14 14       	cp	r1, r4
     200:	00 00       	nop
     202:	00 41       	sbci	r16, 0x10	; 16
     204:	22 14       	cp	r2, r2
     206:	08 00       	.word	0x0008	; ????
     208:	00 00       	nop
     20a:	00 02       	muls	r16, r16
     20c:	01 51       	subi	r16, 0x11	; 17
     20e:	09 06       	cpc	r0, r25
     210:	00 00       	nop
     212:	00 32       	cpi	r16, 0x20	; 32
     214:	49 79       	andi	r20, 0x99	; 153
     216:	41 3e       	cpi	r20, 0xE1	; 225
     218:	00 00       	nop
     21a:	00 7e       	andi	r16, 0xE0	; 224
     21c:	09 09       	sbc	r16, r9
     21e:	09 7e       	andi	r16, 0xE9	; 233
     220:	00 00       	nop
     222:	00 7f       	andi	r16, 0xF0	; 240
     224:	49 49       	sbci	r20, 0x99	; 153
     226:	49 36       	cpi	r20, 0x69	; 105
     228:	00 00       	nop
     22a:	00 3e       	cpi	r16, 0xE0	; 224
     22c:	41 41       	sbci	r20, 0x11	; 17
     22e:	41 22       	and	r4, r17
     230:	00 00       	nop
     232:	00 7f       	andi	r16, 0xF0	; 240
     234:	41 41       	sbci	r20, 0x11	; 17
     236:	22 1c       	adc	r2, r2
     238:	00 00       	nop
     23a:	00 7f       	andi	r16, 0xF0	; 240
     23c:	49 49       	sbci	r20, 0x99	; 153
     23e:	49 41       	sbci	r20, 0x19	; 25
     240:	00 00       	nop
     242:	00 7f       	andi	r16, 0xF0	; 240
     244:	09 09       	sbc	r16, r9
     246:	09 01       	movw	r0, r18
     248:	00 00       	nop
     24a:	00 3e       	cpi	r16, 0xE0	; 224
     24c:	41 41       	sbci	r20, 0x11	; 17
     24e:	51 72       	andi	r21, 0x21	; 33
     250:	00 00       	nop
     252:	00 7f       	andi	r16, 0xF0	; 240
     254:	08 08       	sbc	r0, r8
     256:	08 7f       	andi	r16, 0xF8	; 248
     258:	00 00       	nop
     25a:	00 41       	sbci	r16, 0x10	; 16
     25c:	7f 41       	sbci	r23, 0x1F	; 31
     25e:	00 00       	nop
     260:	00 00       	nop
     262:	00 20       	and	r0, r0
     264:	40 41       	sbci	r20, 0x10	; 16
     266:	3f 01       	movw	r6, r30
     268:	00 00       	nop
     26a:	00 7f       	andi	r16, 0xF0	; 240
     26c:	08 14       	cp	r0, r8
     26e:	22 41       	sbci	r18, 0x12	; 18
     270:	00 00       	nop
     272:	00 7f       	andi	r16, 0xF0	; 240
     274:	40 40       	sbci	r20, 0x00	; 0
     276:	40 40       	sbci	r20, 0x00	; 0
     278:	00 00       	nop
     27a:	00 7f       	andi	r16, 0xF0	; 240
     27c:	02 0c       	add	r0, r2
     27e:	02 7f       	andi	r16, 0xF2	; 242
     280:	00 00       	nop
     282:	00 7f       	andi	r16, 0xF0	; 240
     284:	04 08       	sbc	r0, r4
     286:	10 7f       	andi	r17, 0xF0	; 240
     288:	00 00       	nop
     28a:	00 3e       	cpi	r16, 0xE0	; 224
     28c:	41 41       	sbci	r20, 0x11	; 17
     28e:	41 3e       	cpi	r20, 0xE1	; 225
     290:	00 00       	nop
     292:	00 7f       	andi	r16, 0xF0	; 240
     294:	09 09       	sbc	r16, r9
     296:	09 06       	cpc	r0, r25
     298:	00 00       	nop
     29a:	00 3e       	cpi	r16, 0xE0	; 224
     29c:	41 51       	subi	r20, 0x11	; 17
     29e:	21 5e       	subi	r18, 0xE1	; 225
     2a0:	00 00       	nop
     2a2:	00 7f       	andi	r16, 0xF0	; 240
     2a4:	09 19       	sub	r16, r9
     2a6:	29 46       	sbci	r18, 0x69	; 105
     2a8:	00 00       	nop
     2aa:	00 26       	eor	r0, r16
     2ac:	49 49       	sbci	r20, 0x99	; 153
     2ae:	49 32       	cpi	r20, 0x29	; 41
     2b0:	00 00       	nop
     2b2:	00 01       	movw	r0, r0
     2b4:	01 7f       	andi	r16, 0xF1	; 241
     2b6:	01 01       	movw	r0, r2
     2b8:	00 00       	nop
     2ba:	00 3f       	cpi	r16, 0xF0	; 240
     2bc:	40 40       	sbci	r20, 0x00	; 0
     2be:	40 3f       	cpi	r20, 0xF0	; 240
     2c0:	00 00       	nop
     2c2:	00 1f       	adc	r16, r16
     2c4:	20 40       	sbci	r18, 0x00	; 0
     2c6:	20 1f       	adc	r18, r16
     2c8:	00 00       	nop
     2ca:	00 3f       	cpi	r16, 0xF0	; 240
     2cc:	40 38       	cpi	r20, 0x80	; 128
     2ce:	40 3f       	cpi	r20, 0xF0	; 240
     2d0:	00 00       	nop
     2d2:	00 63       	ori	r16, 0x30	; 48
     2d4:	14 08       	sbc	r1, r4
     2d6:	14 63       	ori	r17, 0x34	; 52
     2d8:	00 00       	nop
     2da:	00 03       	mulsu	r16, r16
     2dc:	04 78       	andi	r16, 0x84	; 132
     2de:	04 03       	mulsu	r16, r20
     2e0:	00 00       	nop
     2e2:	00 61       	ori	r16, 0x10	; 16
     2e4:	51 49       	sbci	r21, 0x91	; 145
     2e6:	45 43       	sbci	r20, 0x35	; 53
     2e8:	00 00       	nop
     2ea:	00 7f       	andi	r16, 0xF0	; 240
     2ec:	41 41       	sbci	r20, 0x11	; 17
     2ee:	00 00       	nop
     2f0:	00 00       	nop
     2f2:	00 02       	muls	r16, r16
     2f4:	04 08       	sbc	r0, r4
     2f6:	10 20       	and	r1, r0
     2f8:	00 00       	nop
     2fa:	00 41       	sbci	r16, 0x10	; 16
     2fc:	41 7f       	andi	r20, 0xF1	; 241
     2fe:	00 00       	nop
     300:	00 00       	nop
     302:	00 04       	cpc	r0, r0
     304:	02 01       	movw	r0, r4
     306:	02 04       	cpc	r0, r2
     308:	00 00       	nop
     30a:	00 80       	ld	r0, Z
     30c:	80 80       	ld	r8, Z
     30e:	80 80       	ld	r8, Z
     310:	00 00       	nop
     312:	00 01       	movw	r0, r0
     314:	02 04       	cpc	r0, r2
     316:	00 00       	nop
     318:	00 00       	nop
     31a:	00 20       	and	r0, r0
     31c:	54 54       	subi	r21, 0x44	; 68
     31e:	54 78       	andi	r21, 0x84	; 132
     320:	00 00       	nop
     322:	00 7f       	andi	r16, 0xF0	; 240
     324:	48 44       	sbci	r20, 0x48	; 72
     326:	44 38       	cpi	r20, 0x84	; 132
     328:	00 00       	nop
     32a:	00 38       	cpi	r16, 0x80	; 128
     32c:	44 44       	sbci	r20, 0x44	; 68
     32e:	28 00       	.word	0x0028	; ????
     330:	00 00       	nop
     332:	00 38       	cpi	r16, 0x80	; 128
     334:	44 44       	sbci	r20, 0x44	; 68
     336:	48 7f       	andi	r20, 0xF8	; 248
     338:	00 00       	nop
     33a:	00 38       	cpi	r16, 0x80	; 128
     33c:	54 54       	subi	r21, 0x44	; 68
     33e:	54 18       	sub	r5, r4
     340:	00 00       	nop
     342:	00 08       	sbc	r0, r0
     344:	7e 09       	sbc	r23, r14
     346:	02 00       	.word	0x0002	; ????
     348:	00 00       	nop
     34a:	00 18       	sub	r0, r0
     34c:	a4 a4       	ldd	r10, Z+44	; 0x2c
     34e:	a4 7c       	andi	r26, 0xC4	; 196
     350:	00 00       	nop
     352:	00 7f       	andi	r16, 0xF0	; 240
     354:	08 04       	cpc	r0, r8
     356:	04 78       	andi	r16, 0x84	; 132
     358:	00 00       	nop
     35a:	00 00       	nop
     35c:	7d 00       	.word	0x007d	; ????
     35e:	00 00       	nop
     360:	00 00       	nop
     362:	00 80       	ld	r0, Z
     364:	84 7d       	andi	r24, 0xD4	; 212
     366:	00 00       	nop
     368:	00 00       	nop
     36a:	00 7f       	andi	r16, 0xF0	; 240
     36c:	10 28       	or	r1, r0
     36e:	44 00       	.word	0x0044	; ????
     370:	00 00       	nop
     372:	00 41       	sbci	r16, 0x10	; 16
     374:	7f 40       	sbci	r23, 0x0F	; 15
     376:	00 00       	nop
     378:	00 00       	nop
     37a:	00 7c       	andi	r16, 0xC0	; 192
     37c:	04 18       	sub	r0, r4
     37e:	04 78       	andi	r16, 0x84	; 132
     380:	00 00       	nop
     382:	00 7c       	andi	r16, 0xC0	; 192
     384:	08 04       	cpc	r0, r8
     386:	7c 00       	.word	0x007c	; ????
     388:	00 00       	nop
     38a:	00 38       	cpi	r16, 0x80	; 128
     38c:	44 44       	sbci	r20, 0x44	; 68
     38e:	38 00       	.word	0x0038	; ????
     390:	00 00       	nop
     392:	00 fc       	sbrc	r0, 0
     394:	24 24       	eor	r2, r4
     396:	18 00       	.word	0x0018	; ????
     398:	00 00       	nop
     39a:	00 18       	sub	r0, r0
     39c:	24 24       	eor	r2, r4
     39e:	fc 00       	.word	0x00fc	; ????
     3a0:	00 00       	nop
     3a2:	00 00       	nop
     3a4:	7c 08       	sbc	r7, r12
     3a6:	04 00       	.word	0x0004	; ????
     3a8:	00 00       	nop
     3aa:	00 48       	sbci	r16, 0x80	; 128
     3ac:	54 54       	subi	r21, 0x44	; 68
     3ae:	24 00       	.word	0x0024	; ????
     3b0:	00 00       	nop
     3b2:	00 04       	cpc	r0, r0
     3b4:	7f 44       	sbci	r23, 0x4F	; 79
     3b6:	00 00       	nop
     3b8:	00 00       	nop
     3ba:	00 3c       	cpi	r16, 0xC0	; 192
     3bc:	40 40       	sbci	r20, 0x00	; 0
     3be:	7c 00       	.word	0x007c	; ????
     3c0:	00 00       	nop
     3c2:	00 1c       	adc	r0, r0
     3c4:	20 40       	sbci	r18, 0x00	; 0
     3c6:	20 1c       	adc	r2, r0
     3c8:	00 00       	nop
     3ca:	00 3c       	cpi	r16, 0xC0	; 192
     3cc:	40 30       	cpi	r20, 0x00	; 0
     3ce:	40 3c       	cpi	r20, 0xC0	; 192
     3d0:	00 00       	nop
     3d2:	00 44       	sbci	r16, 0x40	; 64
     3d4:	28 10       	cpse	r2, r8
     3d6:	28 44       	sbci	r18, 0x48	; 72
     3d8:	00 00       	nop
     3da:	00 1c       	adc	r0, r0
     3dc:	a0 a0       	ldd	r10, Z+32	; 0x20
     3de:	7c 00       	.word	0x007c	; ????
     3e0:	00 00       	nop
     3e2:	00 44       	sbci	r16, 0x40	; 64
     3e4:	64 54       	subi	r22, 0x44	; 68
     3e6:	4c 44       	sbci	r20, 0x4C	; 76
     3e8:	00 00       	nop
     3ea:	00 08       	sbc	r0, r0
     3ec:	36 41       	sbci	r19, 0x16	; 22
     3ee:	00 00       	nop
     3f0:	00 00       	nop
     3f2:	00 00       	nop
     3f4:	7f 00       	.word	0x007f	; ????
     3f6:	00 00       	nop
     3f8:	00 00       	nop
     3fa:	00 41       	sbci	r16, 0x10	; 16
     3fc:	36 08       	sbc	r3, r6
     3fe:	00 00       	nop
     400:	00 00       	nop
     402:	00 02       	muls	r16, r16
     404:	01 01       	movw	r0, r2
     406:	02 01       	movw	r0, r4
     408:	00 00       	nop
     40a:	00 02       	muls	r16, r16
     40c:	05 05       	cpc	r16, r5
     40e:	02 00       	.word	0x0002	; ????
	...

00000412 <__ctors_end>:
     412:	11 24       	eor	r1, r1
     414:	1f be       	out	0x3f, r1	; 63
     416:	cf ef       	ldi	r28, 0xFF	; 255
     418:	d1 e2       	ldi	r29, 0x21	; 33
     41a:	de bf       	out	0x3e, r29	; 62
     41c:	cd bf       	out	0x3d, r28	; 61
     41e:	00 e0       	ldi	r16, 0x00	; 0
     420:	0c bf       	out	0x3c, r16	; 60

00000422 <__do_copy_data>:
     422:	12 e0       	ldi	r17, 0x02	; 2
     424:	a0 e0       	ldi	r26, 0x00	; 0
     426:	b2 e0       	ldi	r27, 0x02	; 2
     428:	e6 e3       	ldi	r30, 0x36	; 54
     42a:	f8 e1       	ldi	r31, 0x18	; 24
     42c:	00 e0       	ldi	r16, 0x00	; 0
     42e:	0b bf       	out	0x3b, r16	; 59
     430:	02 c0       	rjmp	.+4      	; 0x436 <__do_copy_data+0x14>
     432:	07 90       	elpm	r0, Z+
     434:	0d 92       	st	X+, r0
     436:	a0 31       	cpi	r26, 0x10	; 16
     438:	b1 07       	cpc	r27, r17
     43a:	d9 f7       	brne	.-10     	; 0x432 <__do_copy_data+0x10>

0000043c <__do_clear_bss>:
     43c:	22 e0       	ldi	r18, 0x02	; 2
     43e:	a0 e1       	ldi	r26, 0x10	; 16
     440:	b2 e0       	ldi	r27, 0x02	; 2
     442:	01 c0       	rjmp	.+2      	; 0x446 <.do_clear_bss_start>

00000444 <.do_clear_bss_loop>:
     444:	1d 92       	st	X+, r1

00000446 <.do_clear_bss_start>:
     446:	aa 3f       	cpi	r26, 0xFA	; 250
     448:	b2 07       	cpc	r27, r18
     44a:	e1 f7       	brne	.-8      	; 0x444 <.do_clear_bss_loop>
     44c:	8a d1       	rcall	.+788    	; 0x762 <main>
     44e:	0c 94 19 0c 	jmp	0x1832	; 0x1832 <_exit>

00000452 <__bad_interrupt>:
     452:	d6 cd       	rjmp	.-1108   	; 0x0 <__vectors>

00000454 <init_adc>:
							//Using external 3.3V reference on AREF	
	ADMUX |= (1<<ADLAR);	//Left adjust ADC conversion result, since only ADCH is read because only 8-bit precision is needed	 
	DIDR0 = (1<<channel);	//Disabling unused inputs to save power
	DIDR0 = ~DIDR0;
	DIDR1 = 0xFF;			//Disable DIDR1
	DIDR2 = 0xFF;			//Disable DIDR2
     454:	ea e7       	ldi	r30, 0x7A	; 122
     456:	f0 e0       	ldi	r31, 0x00	; 0
     458:	90 81       	ld	r25, Z
     45a:	94 60       	ori	r25, 0x04	; 4
     45c:	90 83       	st	Z, r25
     45e:	ac e7       	ldi	r26, 0x7C	; 124
     460:	b0 e0       	ldi	r27, 0x00	; 0
     462:	9c 91       	ld	r25, X
     464:	90 62       	ori	r25, 0x20	; 32
     466:	9c 93       	st	X, r25
     468:	ae e7       	ldi	r26, 0x7E	; 126
     46a:	b0 e0       	ldi	r27, 0x00	; 0
     46c:	9c 91       	ld	r25, X
     46e:	91 60       	ori	r25, 0x01	; 1
     470:	9c 93       	st	X, r25
     472:	ab e7       	ldi	r26, 0x7B	; 123
     474:	b0 e0       	ldi	r27, 0x00	; 0
     476:	9c 91       	ld	r25, X
     478:	93 60       	ori	r25, 0x03	; 3
     47a:	9c 93       	st	X, r25
     47c:	90 81       	ld	r25, Z
     47e:	90 62       	ori	r25, 0x20	; 32
     480:	90 83       	st	Z, r25
     482:	90 81       	ld	r25, Z
     484:	90 68       	ori	r25, 0x80	; 128
     486:	90 83       	st	Z, r25
     488:	88 23       	and	r24, r24
     48a:	19 f0       	breq	.+6      	; 0x492 <init_adc+0x3e>
     48c:	80 81       	ld	r24, Z
     48e:	88 60       	ori	r24, 0x08	; 8
     490:	80 83       	st	Z, r24
     492:	08 95       	ret

00000494 <formatADCSample>:
	
}


//Format ADC 10-bit sample to decimal value with 2 decimal places.	
void formatADCSample(int sample, char * buffer){
     494:	ef 92       	push	r14
     496:	ff 92       	push	r15
     498:	0f 93       	push	r16
     49a:	1f 93       	push	r17
     49c:	cf 93       	push	r28
     49e:	df 93       	push	r29
     4a0:	fb 01       	movw	r30, r22
	
	char Vref = 5;		//3,3V * 3 =9,9. Searching for whole number. Divider should be mult. by 3 as well. Side 280 i datablad
	int div = 255;
	
	unsigned int voltage = (Vref*sample/div); 
     4a2:	9c 01       	movw	r18, r24
     4a4:	22 0f       	add	r18, r18
     4a6:	33 1f       	adc	r19, r19
     4a8:	22 0f       	add	r18, r18
     4aa:	33 1f       	adc	r19, r19
     4ac:	82 0f       	add	r24, r18
     4ae:	93 1f       	adc	r25, r19
     4b0:	6f ef       	ldi	r22, 0xFF	; 255
     4b2:	70 e0       	ldi	r23, 0x00	; 0
     4b4:	ad d6       	rcall	.+3418   	; 0x1210 <__divmodhi4>
	buffer[0]=voltage+0x30;					//ascii for the integer
     4b6:	c0 e3       	ldi	r28, 0x30	; 48
     4b8:	c6 0f       	add	r28, r22
     4ba:	c0 83       	st	Z, r28
	unsigned int frac =(Vref*sample)%div;
	buffer[1]='.';
     4bc:	2e e2       	ldi	r18, 0x2E	; 46
     4be:	21 83       	std	Z+1, r18	; 0x01
	buffer[2]=Vref*frac/div+0x30;
     4c0:	ac 01       	movw	r20, r24
     4c2:	44 0f       	add	r20, r20
     4c4:	55 1f       	adc	r21, r21
     4c6:	44 0f       	add	r20, r20
     4c8:	55 1f       	adc	r21, r21
     4ca:	48 0f       	add	r20, r24
     4cc:	59 1f       	adc	r21, r25
     4ce:	9a 01       	movw	r18, r20
     4d0:	a1 e8       	ldi	r26, 0x81	; 129
     4d2:	b0 e8       	ldi	r27, 0x80	; 128
     4d4:	b0 d6       	rcall	.+3424   	; 0x1236 <__umulhisi3>
     4d6:	7c 01       	movw	r14, r24
     4d8:	ee 0c       	add	r14, r14
     4da:	ef 2c       	mov	r14, r15
     4dc:	ee 1c       	adc	r14, r14
     4de:	ff 08       	sbc	r15, r15
     4e0:	f1 94       	neg	r15
     4e2:	d0 e3       	ldi	r29, 0x30	; 48
     4e4:	de 0d       	add	r29, r14
     4e6:	d2 83       	std	Z+2, r29	; 0x02
	frac = (Vref*frac)%div;
     4e8:	0f ef       	ldi	r16, 0xFF	; 255
     4ea:	0e 9d       	mul	r16, r14
     4ec:	c0 01       	movw	r24, r0
     4ee:	0f 9d       	mul	r16, r15
     4f0:	90 0d       	add	r25, r0
     4f2:	11 24       	eor	r1, r1
     4f4:	48 1b       	sub	r20, r24
     4f6:	59 0b       	sbc	r21, r25
	buffer[3]= (Vref*frac)/div +0x30;
     4f8:	ca 01       	movw	r24, r20
     4fa:	88 0f       	add	r24, r24
     4fc:	99 1f       	adc	r25, r25
     4fe:	88 0f       	add	r24, r24
     500:	99 1f       	adc	r25, r25
     502:	48 0f       	add	r20, r24
     504:	59 1f       	adc	r21, r25
     506:	9a 01       	movw	r18, r20
     508:	96 d6       	rcall	.+3372   	; 0x1236 <__umulhisi3>
     50a:	7c 01       	movw	r14, r24
     50c:	ee 0c       	add	r14, r14
     50e:	ef 2c       	mov	r14, r15
     510:	ee 1c       	adc	r14, r14
     512:	ff 08       	sbc	r15, r15
     514:	f1 94       	neg	r15
     516:	10 e3       	ldi	r17, 0x30	; 48
     518:	1e 0d       	add	r17, r14
     51a:	13 83       	std	Z+3, r17	; 0x03
	frac = (Vref*frac)%div;
     51c:	0e 9d       	mul	r16, r14
     51e:	c0 01       	movw	r24, r0
     520:	0f 9d       	mul	r16, r15
     522:	90 0d       	add	r25, r0
     524:	11 24       	eor	r1, r1
     526:	48 1b       	sub	r20, r24
     528:	59 0b       	sbc	r21, r25
	if(frac>=(div-1))
     52a:	4e 3f       	cpi	r20, 0xFE	; 254
     52c:	51 05       	cpc	r21, r1
     52e:	10 f0       	brcs	.+4      	; 0x534 <formatADCSample+0xa0>
	buffer[3]++;
     530:	1f 5f       	subi	r17, 0xFF	; 255
     532:	13 83       	std	Z+3, r17	; 0x03
	if(buffer[3]==(0x30+10)) {
     534:	83 81       	ldd	r24, Z+3	; 0x03
     536:	8a 33       	cpi	r24, 0x3A	; 58
     538:	49 f4       	brne	.+18     	; 0x54c <formatADCSample+0xb8>
		buffer[3]=0x30;
     53a:	80 e3       	ldi	r24, 0x30	; 48
     53c:	83 83       	std	Z+3, r24	; 0x03
		buffer[2]++;
     53e:	df 5f       	subi	r29, 0xFF	; 255
     540:	d2 83       	std	Z+2, r29	; 0x02
		if(buffer[2]==(0x30+10)) {
     542:	da 33       	cpi	r29, 0x3A	; 58
     544:	19 f4       	brne	.+6      	; 0x54c <formatADCSample+0xb8>
			buffer[2]=0x30;
     546:	82 83       	std	Z+2, r24	; 0x02
			buffer[0]++;
     548:	cf 5f       	subi	r28, 0xFF	; 255
     54a:	c0 83       	st	Z, r28
		}
	}
     54c:	df 91       	pop	r29
     54e:	cf 91       	pop	r28
     550:	1f 91       	pop	r17
     552:	0f 91       	pop	r16
     554:	ff 90       	pop	r15
     556:	ef 90       	pop	r14
     558:	08 95       	ret

0000055a <I2C_Init>:
     55a:	81 b1       	in	r24, 0x01	; 1
     55c:	81 60       	ori	r24, 0x01	; 1
     55e:	81 b9       	out	0x01, r24	; 1
     560:	82 b1       	in	r24, 0x02	; 2
     562:	81 60       	ori	r24, 0x01	; 1
     564:	82 b9       	out	0x02, r24	; 2
     566:	2f ef       	ldi	r18, 0xFF	; 255
     568:	83 ed       	ldi	r24, 0xD3	; 211
     56a:	90 e3       	ldi	r25, 0x30	; 48
     56c:	21 50       	subi	r18, 0x01	; 1
     56e:	80 40       	sbci	r24, 0x00	; 0
     570:	90 40       	sbci	r25, 0x00	; 0
     572:	e1 f7       	brne	.-8      	; 0x56c <I2C_Init+0x12>
     574:	00 c0       	rjmp	.+0      	; 0x576 <I2C_Init+0x1c>
     576:	00 00       	nop
     578:	82 e1       	ldi	r24, 0x12	; 18
     57a:	80 93 b8 00 	sts	0x00B8, r24	; 0x8000b8 <__TEXT_REGION_LENGTH__+0x7c00b8>
     57e:	e9 eb       	ldi	r30, 0xB9	; 185
     580:	f0 e0       	ldi	r31, 0x00	; 0
     582:	80 81       	ld	r24, Z
     584:	8c 7f       	andi	r24, 0xFC	; 252
     586:	80 83       	st	Z, r24
     588:	85 e0       	ldi	r24, 0x05	; 5
     58a:	80 93 bc 00 	sts	0x00BC, r24	; 0x8000bc <__TEXT_REGION_LENGTH__+0x7c00bc>
     58e:	08 95       	ret

00000590 <I2C_Start>:
     590:	94 ea       	ldi	r25, 0xA4	; 164
     592:	90 93 bc 00 	sts	0x00BC, r25	; 0x8000bc <__TEXT_REGION_LENGTH__+0x7c00bc>
     596:	90 91 bc 00 	lds	r25, 0x00BC	; 0x8000bc <__TEXT_REGION_LENGTH__+0x7c00bc>
     59a:	99 23       	and	r25, r25
     59c:	e4 f7       	brge	.-8      	; 0x596 <I2C_Start+0x6>
     59e:	90 91 b9 00 	lds	r25, 0x00B9	; 0x8000b9 <__TEXT_REGION_LENGTH__+0x7c00b9>
     5a2:	98 7f       	andi	r25, 0xF8	; 248
     5a4:	98 30       	cpi	r25, 0x08	; 8
     5a6:	91 f4       	brne	.+36     	; 0x5cc <I2C_Start+0x3c>
     5a8:	80 93 bb 00 	sts	0x00BB, r24	; 0x8000bb <__TEXT_REGION_LENGTH__+0x7c00bb>
     5ac:	84 e8       	ldi	r24, 0x84	; 132
     5ae:	80 93 bc 00 	sts	0x00BC, r24	; 0x8000bc <__TEXT_REGION_LENGTH__+0x7c00bc>
     5b2:	80 91 bc 00 	lds	r24, 0x00BC	; 0x8000bc <__TEXT_REGION_LENGTH__+0x7c00bc>
     5b6:	88 23       	and	r24, r24
     5b8:	e4 f7       	brge	.-8      	; 0x5b2 <I2C_Start+0x22>
     5ba:	80 91 b9 00 	lds	r24, 0x00B9	; 0x8000b9 <__TEXT_REGION_LENGTH__+0x7c00b9>
     5be:	88 7f       	andi	r24, 0xF8	; 248
     5c0:	88 31       	cpi	r24, 0x18	; 24
     5c2:	31 f0       	breq	.+12     	; 0x5d0 <I2C_Start+0x40>
     5c4:	80 32       	cpi	r24, 0x20	; 32
     5c6:	31 f4       	brne	.+12     	; 0x5d4 <I2C_Start+0x44>
     5c8:	82 e0       	ldi	r24, 0x02	; 2
     5ca:	08 95       	ret
     5cc:	80 e0       	ldi	r24, 0x00	; 0
     5ce:	08 95       	ret
     5d0:	81 e0       	ldi	r24, 0x01	; 1
     5d2:	08 95       	ret
     5d4:	83 e0       	ldi	r24, 0x03	; 3
     5d6:	08 95       	ret

000005d8 <I2C_Write>:
     5d8:	80 93 bb 00 	sts	0x00BB, r24	; 0x8000bb <__TEXT_REGION_LENGTH__+0x7c00bb>
     5dc:	84 e8       	ldi	r24, 0x84	; 132
     5de:	80 93 bc 00 	sts	0x00BC, r24	; 0x8000bc <__TEXT_REGION_LENGTH__+0x7c00bc>
     5e2:	80 91 bc 00 	lds	r24, 0x00BC	; 0x8000bc <__TEXT_REGION_LENGTH__+0x7c00bc>
     5e6:	88 23       	and	r24, r24
     5e8:	e4 f7       	brge	.-8      	; 0x5e2 <I2C_Write+0xa>
     5ea:	80 91 b9 00 	lds	r24, 0x00B9	; 0x8000b9 <__TEXT_REGION_LENGTH__+0x7c00b9>
     5ee:	88 7f       	andi	r24, 0xF8	; 248
     5f0:	88 32       	cpi	r24, 0x28	; 40
     5f2:	21 f0       	breq	.+8      	; 0x5fc <I2C_Write+0x24>
     5f4:	80 33       	cpi	r24, 0x30	; 48
     5f6:	21 f4       	brne	.+8      	; 0x600 <I2C_Write+0x28>
     5f8:	81 e0       	ldi	r24, 0x01	; 1
     5fa:	08 95       	ret
     5fc:	80 e0       	ldi	r24, 0x00	; 0
     5fe:	08 95       	ret
     600:	82 e0       	ldi	r24, 0x02	; 2
     602:	08 95       	ret

00000604 <I2C_Stop>:
     604:	84 e9       	ldi	r24, 0x94	; 148
     606:	80 93 bc 00 	sts	0x00BC, r24	; 0x8000bc <__TEXT_REGION_LENGTH__+0x7c00bc>
     60a:	80 91 bc 00 	lds	r24, 0x00BC	; 0x8000bc <__TEXT_REGION_LENGTH__+0x7c00bc>
     60e:	84 fd       	sbrc	r24, 4
     610:	fc cf       	rjmp	.-8      	; 0x60a <I2C_Stop+0x6>
     612:	08 95       	ret

00000614 <init_trigonometry>:
 }

//Int to ascii conversion
int intToAscii(int number) {
	return '0' + number;
}
     614:	20 e0       	ldi	r18, 0x00	; 0
     616:	30 e0       	ldi	r19, 0x00	; 0
     618:	3e c0       	rjmp	.+124    	; 0x696 <init_trigonometry+0x82>
     61a:	80 91 5e 02 	lds	r24, 0x025E	; 0x80025e <trig_count>
     61e:	81 30       	cpi	r24, 0x01	; 1
     620:	99 f0       	breq	.+38     	; 0x648 <init_trigonometry+0x34>
     622:	28 f0       	brcs	.+10     	; 0x62e <init_trigonometry+0x1a>
     624:	82 30       	cpi	r24, 0x02	; 2
     626:	e9 f0       	breq	.+58     	; 0x662 <init_trigonometry+0x4e>
     628:	83 30       	cpi	r24, 0x03	; 3
     62a:	41 f1       	breq	.+80     	; 0x67c <init_trigonometry+0x68>
     62c:	32 c0       	rjmp	.+100    	; 0x692 <init_trigonometry+0x7e>
     62e:	91 e0       	ldi	r25, 0x01	; 1
     630:	f9 01       	movw	r30, r18
     632:	e1 56       	subi	r30, 0x61	; 97
     634:	fd 4f       	sbci	r31, 0xFD	; 253
     636:	90 83       	st	Z, r25
     638:	f9 01       	movw	r30, r18
     63a:	e1 5a       	subi	r30, 0xA1	; 161
     63c:	fd 4f       	sbci	r31, 0xFD	; 253
     63e:	10 82       	st	Z, r1
     640:	8f 5f       	subi	r24, 0xFF	; 255
     642:	80 93 5e 02 	sts	0x025E, r24	; 0x80025e <trig_count>
     646:	25 c0       	rjmp	.+74     	; 0x692 <init_trigonometry+0x7e>
     648:	f9 01       	movw	r30, r18
     64a:	e1 56       	subi	r30, 0x61	; 97
     64c:	fd 4f       	sbci	r31, 0xFD	; 253
     64e:	10 82       	st	Z, r1
     650:	91 e0       	ldi	r25, 0x01	; 1
     652:	f9 01       	movw	r30, r18
     654:	e1 5a       	subi	r30, 0xA1	; 161
     656:	fd 4f       	sbci	r31, 0xFD	; 253
     658:	90 83       	st	Z, r25
     65a:	8f 5f       	subi	r24, 0xFF	; 255
     65c:	80 93 5e 02 	sts	0x025E, r24	; 0x80025e <trig_count>
     660:	18 c0       	rjmp	.+48     	; 0x692 <init_trigonometry+0x7e>
     662:	9f ef       	ldi	r25, 0xFF	; 255
     664:	f9 01       	movw	r30, r18
     666:	e1 56       	subi	r30, 0x61	; 97
     668:	fd 4f       	sbci	r31, 0xFD	; 253
     66a:	90 83       	st	Z, r25
     66c:	f9 01       	movw	r30, r18
     66e:	e1 5a       	subi	r30, 0xA1	; 161
     670:	fd 4f       	sbci	r31, 0xFD	; 253
     672:	10 82       	st	Z, r1
     674:	8f 5f       	subi	r24, 0xFF	; 255
     676:	80 93 5e 02 	sts	0x025E, r24	; 0x80025e <trig_count>
     67a:	0b c0       	rjmp	.+22     	; 0x692 <init_trigonometry+0x7e>
     67c:	f9 01       	movw	r30, r18
     67e:	e1 56       	subi	r30, 0x61	; 97
     680:	fd 4f       	sbci	r31, 0xFD	; 253
     682:	10 82       	st	Z, r1
     684:	8f ef       	ldi	r24, 0xFF	; 255
     686:	f9 01       	movw	r30, r18
     688:	e1 5a       	subi	r30, 0xA1	; 161
     68a:	fd 4f       	sbci	r31, 0xFD	; 253
     68c:	80 83       	st	Z, r24
     68e:	10 92 5e 02 	sts	0x025E, r1	; 0x80025e <trig_count>
     692:	2f 5f       	subi	r18, 0xFF	; 255
     694:	3f 4f       	sbci	r19, 0xFF	; 255
     696:	20 34       	cpi	r18, 0x40	; 64
     698:	31 05       	cpc	r19, r1
     69a:	0c f4       	brge	.+2      	; 0x69e <init_trigonometry+0x8a>
     69c:	be cf       	rjmp	.-132    	; 0x61a <init_trigonometry+0x6>
     69e:	08 95       	ret

000006a0 <setup>:
     6a0:	78 94       	sei
     6a2:	84 b1       	in	r24, 0x04	; 4
     6a4:	80 64       	ori	r24, 0x40	; 64
     6a6:	84 b9       	out	0x04, r24	; 4
     6a8:	84 b1       	in	r24, 0x04	; 4
     6aa:	80 62       	ori	r24, 0x20	; 32
     6ac:	84 b9       	out	0x04, r24	; 4
     6ae:	85 b1       	in	r24, 0x05	; 5
     6b0:	8f 7d       	andi	r24, 0xDF	; 223
     6b2:	85 b9       	out	0x05, r24	; 5
     6b4:	85 b1       	in	r24, 0x05	; 5
     6b6:	8f 7b       	andi	r24, 0xBF	; 191
     6b8:	85 b9       	out	0x05, r24	; 5
     6ba:	88 e7       	ldi	r24, 0x78	; 120
     6bc:	80 93 01 02 	sts	0x0201, r24	; 0x800201 <_i2c_address>
     6c0:	4c df       	rcall	.-360    	; 0x55a <I2C_Init>
     6c2:	e8 d1       	rcall	.+976    	; 0xa94 <InitializeDisplay>
     6c4:	7b d2       	rcall	.+1270   	; 0xbbc <print_fonts>
     6c6:	38 d2       	rcall	.+1136   	; 0xb38 <clear_display>
     6c8:	40 e0       	ldi	r20, 0x00	; 0
     6ca:	50 e0       	ldi	r21, 0x00	; 0
     6cc:	61 e0       	ldi	r22, 0x01	; 1
     6ce:	70 e0       	ldi	r23, 0x00	; 0
     6d0:	82 e0       	ldi	r24, 0x02	; 2
     6d2:	92 e0       	ldi	r25, 0x02	; 2
     6d4:	45 d2       	rcall	.+1162   	; 0xb60 <sendStrXY>
     6d6:	40 e0       	ldi	r20, 0x00	; 0
     6d8:	50 e0       	ldi	r21, 0x00	; 0
     6da:	62 e0       	ldi	r22, 0x02	; 2
     6dc:	70 e0       	ldi	r23, 0x00	; 0
     6de:	86 e0       	ldi	r24, 0x06	; 6
     6e0:	92 e0       	ldi	r25, 0x02	; 2
     6e2:	3e d2       	rcall	.+1148   	; 0xb60 <sendStrXY>
     6e4:	ac d2       	rcall	.+1368   	; 0xc3e <init_timer0>
     6e6:	96 cf       	rjmp	.-212    	; 0x614 <init_trigonometry>
     6e8:	08 95       	ret

000006ea <debug_print_char>:

void debug_print_char(int input,char x, char y){
     6ea:	ef 92       	push	r14
     6ec:	ff 92       	push	r15
     6ee:	0f 93       	push	r16
     6f0:	1f 93       	push	r17
     6f2:	cf 93       	push	r28
     6f4:	df 93       	push	r29
     6f6:	cd b7       	in	r28, 0x3d	; 61
     6f8:	de b7       	in	r29, 0x3e	; 62
     6fa:	c4 56       	subi	r28, 0x64	; 100
     6fc:	d1 09       	sbc	r29, r1
     6fe:	0f b6       	in	r0, 0x3f	; 63
     700:	f8 94       	cli
     702:	de bf       	out	0x3e, r29	; 62
     704:	0f be       	out	0x3f, r0	; 63
     706:	cd bf       	out	0x3d, r28	; 61
     708:	f6 2e       	mov	r15, r22
     70a:	e4 2e       	mov	r14, r20
	char temp[100] = {0};
     70c:	8e 01       	movw	r16, r28
     70e:	0f 5f       	subi	r16, 0xFF	; 255
     710:	1f 4f       	sbci	r17, 0xFF	; 255
     712:	24 e6       	ldi	r18, 0x64	; 100
     714:	f8 01       	movw	r30, r16
     716:	11 92       	st	Z+, r1
     718:	2a 95       	dec	r18
     71a:	e9 f7       	brne	.-6      	; 0x716 <debug_print_char+0x2c>
	sprintf(temp,"%d",input);
     71c:	9f 93       	push	r25
     71e:	8f 93       	push	r24
     720:	8d e0       	ldi	r24, 0x0D	; 13
     722:	92 e0       	ldi	r25, 0x02	; 2
     724:	9f 93       	push	r25
     726:	8f 93       	push	r24
     728:	1f 93       	push	r17
     72a:	0f 93       	push	r16
     72c:	a7 d5       	rcall	.+2894   	; 0x127c <sprintf>
	sendStrXY(temp, x,y);
     72e:	4e 2d       	mov	r20, r14
     730:	50 e0       	ldi	r21, 0x00	; 0
     732:	6f 2d       	mov	r22, r15
     734:	70 e0       	ldi	r23, 0x00	; 0
     736:	c8 01       	movw	r24, r16
     738:	13 d2       	rcall	.+1062   	; 0xb60 <sendStrXY>
}
     73a:	0f 90       	pop	r0
     73c:	0f 90       	pop	r0
     73e:	0f 90       	pop	r0
     740:	0f 90       	pop	r0
     742:	0f 90       	pop	r0
     744:	0f 90       	pop	r0
     746:	cc 59       	subi	r28, 0x9C	; 156
     748:	df 4f       	sbci	r29, 0xFF	; 255
     74a:	0f b6       	in	r0, 0x3f	; 63
     74c:	f8 94       	cli
     74e:	de bf       	out	0x3e, r29	; 62
     750:	0f be       	out	0x3f, r0	; 63
     752:	cd bf       	out	0x3d, r28	; 61
     754:	df 91       	pop	r29
     756:	cf 91       	pop	r28
     758:	1f 91       	pop	r17
     75a:	0f 91       	pop	r16
     75c:	ff 90       	pop	r15
     75e:	ef 90       	pop	r14
     760:	08 95       	ret

00000762 <main>:

int Re = 0; 
int Im = 0;

 int main(void){
	setup();
     762:	9e df       	rcall	.-196    	; 0x6a0 <setup>
	
//Main loop	
	while(1){
		switch(tilstand){
     764:	80 91 00 02 	lds	r24, 0x0200	; 0x800200 <__DATA_REGION_ORIGIN__>
     768:	81 30       	cpi	r24, 0x01	; 1
     76a:	e1 f7       	brne	.-8      	; 0x764 <main+0x2>
			
			case run:
				if(DFT_ready == 1){
     76c:	80 91 e5 02 	lds	r24, 0x02E5	; 0x8002e5 <DFT_ready>
     770:	81 30       	cpi	r24, 0x01	; 1
     772:	c1 f7       	brne	.-16     	; 0x764 <main+0x2>
     774:	8b c0       	rjmp	.+278    	; 0x88c <main+0x12a>
					
					for(int i = 0; i<NUM_SAMPLES; i++){
						switch(trig_count){
     776:	20 91 5e 02 	lds	r18, 0x025E	; 0x80025e <trig_count>
     77a:	21 30       	cpi	r18, 0x01	; 1
     77c:	29 f1       	breq	.+74     	; 0x7c8 <main+0x66>
     77e:	38 f0       	brcs	.+14     	; 0x78e <main+0x2c>
     780:	22 30       	cpi	r18, 0x02	; 2
     782:	09 f4       	brne	.+2      	; 0x786 <main+0x24>
     784:	3e c0       	rjmp	.+124    	; 0x802 <main+0xa0>
     786:	23 30       	cpi	r18, 0x03	; 3
     788:	09 f4       	brne	.+2      	; 0x78c <main+0x2a>
     78a:	58 c0       	rjmp	.+176    	; 0x83c <main+0xda>
     78c:	72 c0       	rjmp	.+228    	; 0x872 <main+0x110>
							case 0:
							Re += ((DFTBuffer[i]*5)/255);
     78e:	df 01       	movw	r26, r30
     790:	ac 5e       	subi	r26, 0xEC	; 236
     792:	bd 4f       	sbci	r27, 0xFD	; 253
     794:	8c 91       	ld	r24, X
     796:	90 e0       	ldi	r25, 0x00	; 0
     798:	ac 01       	movw	r20, r24
     79a:	44 0f       	add	r20, r20
     79c:	55 1f       	adc	r21, r21
     79e:	44 0f       	add	r20, r20
     7a0:	55 1f       	adc	r21, r21
     7a2:	84 0f       	add	r24, r20
     7a4:	95 1f       	adc	r25, r21
     7a6:	6f ef       	ldi	r22, 0xFF	; 255
     7a8:	70 e0       	ldi	r23, 0x00	; 0
     7aa:	32 d5       	rcall	.+2660   	; 0x1210 <__divmodhi4>
     7ac:	80 91 12 02 	lds	r24, 0x0212	; 0x800212 <Re>
     7b0:	90 91 13 02 	lds	r25, 0x0213	; 0x800213 <Re+0x1>
     7b4:	68 0f       	add	r22, r24
     7b6:	79 1f       	adc	r23, r25
     7b8:	70 93 13 02 	sts	0x0213, r23	; 0x800213 <Re+0x1>
     7bc:	60 93 12 02 	sts	0x0212, r22	; 0x800212 <Re>
							Im += 0;
							trig_count++;
     7c0:	2f 5f       	subi	r18, 0xFF	; 255
     7c2:	20 93 5e 02 	sts	0x025E, r18	; 0x80025e <trig_count>
							break;
     7c6:	55 c0       	rjmp	.+170    	; 0x872 <main+0x110>
							
							case 1:
							Re += 0;
							Im += ((DFTBuffer[i]*5)/255);
     7c8:	df 01       	movw	r26, r30
     7ca:	ac 5e       	subi	r26, 0xEC	; 236
     7cc:	bd 4f       	sbci	r27, 0xFD	; 253
     7ce:	8c 91       	ld	r24, X
     7d0:	90 e0       	ldi	r25, 0x00	; 0
     7d2:	ac 01       	movw	r20, r24
     7d4:	44 0f       	add	r20, r20
     7d6:	55 1f       	adc	r21, r21
     7d8:	44 0f       	add	r20, r20
     7da:	55 1f       	adc	r21, r21
     7dc:	84 0f       	add	r24, r20
     7de:	95 1f       	adc	r25, r21
     7e0:	6f ef       	ldi	r22, 0xFF	; 255
     7e2:	70 e0       	ldi	r23, 0x00	; 0
     7e4:	15 d5       	rcall	.+2602   	; 0x1210 <__divmodhi4>
     7e6:	80 91 10 02 	lds	r24, 0x0210	; 0x800210 <__data_end>
     7ea:	90 91 11 02 	lds	r25, 0x0211	; 0x800211 <__data_end+0x1>
     7ee:	68 0f       	add	r22, r24
     7f0:	79 1f       	adc	r23, r25
     7f2:	70 93 11 02 	sts	0x0211, r23	; 0x800211 <__data_end+0x1>
     7f6:	60 93 10 02 	sts	0x0210, r22	; 0x800210 <__data_end>
							trig_count++;
     7fa:	2f 5f       	subi	r18, 0xFF	; 255
     7fc:	20 93 5e 02 	sts	0x025E, r18	; 0x80025e <trig_count>
							break;
     800:	38 c0       	rjmp	.+112    	; 0x872 <main+0x110>
							
							case 2:
							Re -= ((DFTBuffer[i]*5)/255);
     802:	df 01       	movw	r26, r30
     804:	ac 5e       	subi	r26, 0xEC	; 236
     806:	bd 4f       	sbci	r27, 0xFD	; 253
     808:	8c 91       	ld	r24, X
     80a:	90 e0       	ldi	r25, 0x00	; 0
     80c:	ac 01       	movw	r20, r24
     80e:	44 0f       	add	r20, r20
     810:	55 1f       	adc	r21, r21
     812:	44 0f       	add	r20, r20
     814:	55 1f       	adc	r21, r21
     816:	84 0f       	add	r24, r20
     818:	95 1f       	adc	r25, r21
     81a:	6f ef       	ldi	r22, 0xFF	; 255
     81c:	70 e0       	ldi	r23, 0x00	; 0
     81e:	f8 d4       	rcall	.+2544   	; 0x1210 <__divmodhi4>
     820:	80 91 12 02 	lds	r24, 0x0212	; 0x800212 <Re>
     824:	90 91 13 02 	lds	r25, 0x0213	; 0x800213 <Re+0x1>
     828:	86 1b       	sub	r24, r22
     82a:	97 0b       	sbc	r25, r23
     82c:	90 93 13 02 	sts	0x0213, r25	; 0x800213 <Re+0x1>
     830:	80 93 12 02 	sts	0x0212, r24	; 0x800212 <Re>
							Im += 0;
							trig_count++;
     834:	2f 5f       	subi	r18, 0xFF	; 255
     836:	20 93 5e 02 	sts	0x025E, r18	; 0x80025e <trig_count>
							break;
     83a:	1b c0       	rjmp	.+54     	; 0x872 <main+0x110>
							
							case 3:
							Re += 0;
							Im -= ((DFTBuffer[i]*5)/255);
     83c:	df 01       	movw	r26, r30
     83e:	ac 5e       	subi	r26, 0xEC	; 236
     840:	bd 4f       	sbci	r27, 0xFD	; 253
     842:	8c 91       	ld	r24, X
     844:	90 e0       	ldi	r25, 0x00	; 0
     846:	9c 01       	movw	r18, r24
     848:	22 0f       	add	r18, r18
     84a:	33 1f       	adc	r19, r19
     84c:	22 0f       	add	r18, r18
     84e:	33 1f       	adc	r19, r19
     850:	82 0f       	add	r24, r18
     852:	93 1f       	adc	r25, r19
     854:	6f ef       	ldi	r22, 0xFF	; 255
     856:	70 e0       	ldi	r23, 0x00	; 0
     858:	db d4       	rcall	.+2486   	; 0x1210 <__divmodhi4>
     85a:	80 91 10 02 	lds	r24, 0x0210	; 0x800210 <__data_end>
     85e:	90 91 11 02 	lds	r25, 0x0211	; 0x800211 <__data_end+0x1>
     862:	86 1b       	sub	r24, r22
     864:	97 0b       	sbc	r25, r23
     866:	90 93 11 02 	sts	0x0211, r25	; 0x800211 <__data_end+0x1>
     86a:	80 93 10 02 	sts	0x0210, r24	; 0x800210 <__data_end>
							trig_count = 0;
     86e:	10 92 5e 02 	sts	0x025E, r1	; 0x80025e <trig_count>
							break;
						}
						Im = -Im;
     872:	80 91 10 02 	lds	r24, 0x0210	; 0x800210 <__data_end>
     876:	90 91 11 02 	lds	r25, 0x0211	; 0x800211 <__data_end+0x1>
     87a:	91 95       	neg	r25
     87c:	81 95       	neg	r24
     87e:	91 09       	sbc	r25, r1
     880:	90 93 11 02 	sts	0x0211, r25	; 0x800211 <__data_end+0x1>
     884:	80 93 10 02 	sts	0x0210, r24	; 0x800210 <__data_end>
		switch(tilstand){
			
			case run:
				if(DFT_ready == 1){
					
					for(int i = 0; i<NUM_SAMPLES; i++){
     888:	31 96       	adiw	r30, 0x01	; 1
     88a:	02 c0       	rjmp	.+4      	; 0x890 <main+0x12e>
     88c:	e0 e0       	ldi	r30, 0x00	; 0
     88e:	f0 e0       	ldi	r31, 0x00	; 0
     890:	e0 34       	cpi	r30, 0x40	; 64
     892:	f1 05       	cpc	r31, r1
     894:	0c f4       	brge	.+2      	; 0x898 <main+0x136>
     896:	6f cf       	rjmp	.-290    	; 0x776 <main+0x14>
						//Re +=(((DFTBuffer[i]*5)/255)*AmpTrig[i]);
						//
						//Im += (((DFTBuffer[i]*5)/255)*PhaseTrig[i]);
					}
					
					if(DFT_counter == 50){
     898:	80 91 58 02 	lds	r24, 0x0258	; 0x800258 <DFT_counter>
     89c:	90 91 59 02 	lds	r25, 0x0259	; 0x800259 <DFT_counter+0x1>
     8a0:	82 33       	cpi	r24, 0x32	; 50
     8a2:	91 05       	cpc	r25, r1
     8a4:	09 f0       	breq	.+2      	; 0x8a8 <main+0x146>
     8a6:	66 c0       	rjmp	.+204    	; 0x974 <main+0x212>
						modulus = sqrt(Im*Im + Re*Re)/NUM_SAMPLES;
     8a8:	20 91 10 02 	lds	r18, 0x0210	; 0x800210 <__data_end>
     8ac:	30 91 11 02 	lds	r19, 0x0211	; 0x800211 <__data_end+0x1>
     8b0:	22 9f       	mul	r18, r18
     8b2:	a0 01       	movw	r20, r0
     8b4:	23 9f       	mul	r18, r19
     8b6:	50 0d       	add	r21, r0
     8b8:	50 0d       	add	r21, r0
     8ba:	11 24       	eor	r1, r1
     8bc:	20 91 12 02 	lds	r18, 0x0212	; 0x800212 <Re>
     8c0:	30 91 13 02 	lds	r19, 0x0213	; 0x800213 <Re+0x1>
     8c4:	22 9f       	mul	r18, r18
     8c6:	c0 01       	movw	r24, r0
     8c8:	23 9f       	mul	r18, r19
     8ca:	90 0d       	add	r25, r0
     8cc:	90 0d       	add	r25, r0
     8ce:	11 24       	eor	r1, r1
     8d0:	84 0f       	add	r24, r20
     8d2:	95 1f       	adc	r25, r21
     8d4:	6c 01       	movw	r12, r24
     8d6:	99 0f       	add	r25, r25
     8d8:	ee 08       	sbc	r14, r14
     8da:	ff 08       	sbc	r15, r15
     8dc:	c7 01       	movw	r24, r14
     8de:	b6 01       	movw	r22, r12
     8e0:	bb d2       	rcall	.+1398   	; 0xe58 <__floatsisf>
     8e2:	d9 d3       	rcall	.+1970   	; 0x1096 <sqrt>
     8e4:	20 e0       	ldi	r18, 0x00	; 0
     8e6:	30 e0       	ldi	r19, 0x00	; 0
     8e8:	40 e8       	ldi	r20, 0x80	; 128
     8ea:	5c e3       	ldi	r21, 0x3C	; 60
     8ec:	6d d3       	rcall	.+1754   	; 0xfc8 <__mulsf3>
     8ee:	81 d2       	rcall	.+1282   	; 0xdf2 <__fixsfsi>
     8f0:	dc 01       	movw	r26, r24
     8f2:	cb 01       	movw	r24, r22
     8f4:	90 93 5b 02 	sts	0x025B, r25	; 0x80025b <modulus+0x1>
     8f8:	80 93 5a 02 	sts	0x025A, r24	; 0x80025a <modulus>
						//debug_print_char(Amplitude[active_read],1,7);
						debug_print_char(modulus,1,7);
     8fc:	47 e0       	ldi	r20, 0x07	; 7
     8fe:	61 e0       	ldi	r22, 0x01	; 1
						
						angle = (180/M_PI)*atan2(Im, Re);
     900:	f4 de       	rcall	.-536    	; 0x6ea <debug_print_char>
     902:	60 91 12 02 	lds	r22, 0x0212	; 0x800212 <Re>
     906:	70 91 13 02 	lds	r23, 0x0213	; 0x800213 <Re+0x1>
     90a:	07 2e       	mov	r0, r23
     90c:	00 0c       	add	r0, r0
     90e:	88 0b       	sbc	r24, r24
     910:	99 0b       	sbc	r25, r25
     912:	a2 d2       	rcall	.+1348   	; 0xe58 <__floatsisf>
     914:	6b 01       	movw	r12, r22
     916:	7c 01       	movw	r14, r24
     918:	60 91 10 02 	lds	r22, 0x0210	; 0x800210 <__data_end>
     91c:	70 91 11 02 	lds	r23, 0x0211	; 0x800211 <__data_end+0x1>
     920:	07 2e       	mov	r0, r23
     922:	00 0c       	add	r0, r0
     924:	88 0b       	sbc	r24, r24
     926:	99 0b       	sbc	r25, r25
     928:	97 d2       	rcall	.+1326   	; 0xe58 <__floatsisf>
     92a:	a7 01       	movw	r20, r14
     92c:	96 01       	movw	r18, r12
     92e:	a8 d1       	rcall	.+848    	; 0xc80 <atan2>
     930:	20 ee       	ldi	r18, 0xE0	; 224
     932:	3e e2       	ldi	r19, 0x2E	; 46
     934:	45 e6       	ldi	r20, 0x65	; 101
     936:	52 e4       	ldi	r21, 0x42	; 66
     938:	47 d3       	rcall	.+1678   	; 0xfc8 <__mulsf3>
     93a:	5b d2       	rcall	.+1206   	; 0xdf2 <__fixsfsi>
     93c:	dc 01       	movw	r26, r24
     93e:	cb 01       	movw	r24, r22
     940:	90 93 5d 02 	sts	0x025D, r25	; 0x80025d <angle+0x1>
     944:	80 93 5c 02 	sts	0x025C, r24	; 0x80025c <angle>
						debug_print_char(angle,2,7);
     948:	47 e0       	ldi	r20, 0x07	; 7
     94a:	62 e0       	ldi	r22, 0x02	; 2
     94c:	ce de       	rcall	.-612    	; 0x6ea <debug_print_char>
						
						DFT_counter = 0;
     94e:	10 92 59 02 	sts	0x0259, r1	; 0x800259 <DFT_counter+0x1>
     952:	10 92 58 02 	sts	0x0258, r1	; 0x800258 <DFT_counter>
						formatADCSample(ADC_value,printbuffer);
     956:	64 e5       	ldi	r22, 0x54	; 84
     958:	72 e0       	ldi	r23, 0x02	; 2
     95a:	80 91 e1 02 	lds	r24, 0x02E1	; 0x8002e1 <ADC_value>
     95e:	90 91 e2 02 	lds	r25, 0x02E2	; 0x8002e2 <ADC_value+0x1>
     962:	98 dd       	rcall	.-1232   	; 0x494 <formatADCSample>
						sendStrXY(printbuffer,3,7);
     964:	47 e0       	ldi	r20, 0x07	; 7
     966:	50 e0       	ldi	r21, 0x00	; 0
     968:	63 e0       	ldi	r22, 0x03	; 3
     96a:	70 e0       	ldi	r23, 0x00	; 0
     96c:	84 e5       	ldi	r24, 0x54	; 84
     96e:	92 e0       	ldi	r25, 0x02	; 2
     970:	f7 d0       	rcall	.+494    	; 0xb60 <sendStrXY>
     972:	05 c0       	rjmp	.+10     	; 0x97e <main+0x21c>
     974:	01 96       	adiw	r24, 0x01	; 1
						//formatADCSample(ADC_value,printbuffer);
						//sendStrXY(printbuffer,3,7);
						
					}
					else{
						DFT_counter++;
     976:	90 93 59 02 	sts	0x0259, r25	; 0x800259 <DFT_counter+0x1>
     97a:	80 93 58 02 	sts	0x0258, r24	; 0x800258 <DFT_counter>
     97e:	10 92 13 02 	sts	0x0213, r1	; 0x800213 <Re+0x1>
					}
					Re = 0;
     982:	10 92 12 02 	sts	0x0212, r1	; 0x800212 <Re>
     986:	10 92 11 02 	sts	0x0211, r1	; 0x800211 <__data_end+0x1>
					Im = 0;
     98a:	10 92 10 02 	sts	0x0210, r1	; 0x800210 <__data_end>
     98e:	10 92 e5 02 	sts	0x02E5, r1	; 0x8002e5 <DFT_ready>
					DFT_ready = 0;
     992:	e8 ce       	rjmp	.-560    	; 0x764 <main+0x2>

00000994 <__vector_21>:
     994:	1f 92       	push	r1


//Service Routines

//Service routine for Timer1 Compare B
ISR(TIMER0_COMPA_vect){
     996:	0f 92       	push	r0
     998:	0f b6       	in	r0, 0x3f	; 63
     99a:	0f 92       	push	r0
     99c:	11 24       	eor	r1, r1
     99e:	0b b6       	in	r0, 0x3b	; 59
     9a0:	0f 92       	push	r0
     9a2:	2f 93       	push	r18
     9a4:	3f 93       	push	r19
     9a6:	4f 93       	push	r20
     9a8:	5f 93       	push	r21
     9aa:	6f 93       	push	r22
     9ac:	7f 93       	push	r23
     9ae:	8f 93       	push	r24
     9b0:	9f 93       	push	r25
     9b2:	af 93       	push	r26
     9b4:	bf 93       	push	r27
     9b6:	ef 93       	push	r30
     9b8:	ff 93       	push	r31
//	TOGGLEBIT(PORTB,6);
 	if(timercount != 3){
     9ba:	80 91 e4 02 	lds	r24, 0x02E4	; 0x8002e4 <timercount>
     9be:	83 30       	cpi	r24, 0x03	; 3
     9c0:	21 f0       	breq	.+8      	; 0x9ca <__vector_21+0x36>
 		timercount++;		
     9c2:	8f 5f       	subi	r24, 0xFF	; 255
     9c4:	80 93 e4 02 	sts	0x02E4, r24	; 0x8002e4 <timercount>
     9c8:	10 c0       	rjmp	.+32     	; 0x9ea <__vector_21+0x56>
 	}
 	else{
 		timercount = 0;
     9ca:	10 92 e4 02 	sts	0x02E4, r1	; 0x8002e4 <timercount>
 		TOGGLEBIT(PORTB,6);	
     9ce:	95 b1       	in	r25, 0x05	; 5
     9d0:	80 e4       	ldi	r24, 0x40	; 64
     9d2:	89 27       	eor	r24, r25
     9d4:	85 b9       	out	0x05, r24	; 5
		//Start ADC sampling
		if(CHKBIT(PORTB,6) == 0 && ADC_start_flag == 0){
     9d6:	2e 99       	sbic	0x05, 6	; 5
     9d8:	08 c0       	rjmp	.+16     	; 0x9ea <__vector_21+0x56>
     9da:	80 91 e3 02 	lds	r24, 0x02E3	; 0x8002e3 <ADC_start_flag>
     9de:	81 11       	cpse	r24, r1
     9e0:	04 c0       	rjmp	.+8      	; 0x9ea <__vector_21+0x56>
			ADC_start_flag = 1;
     9e2:	81 e0       	ldi	r24, 0x01	; 1
     9e4:	80 93 e3 02 	sts	0x02E3, r24	; 0x8002e3 <ADC_start_flag>
			init_adc(1);
     9e8:	35 dd       	rcall	.-1430   	; 0x454 <init_adc>
			}
		}
}
     9ea:	ff 91       	pop	r31
     9ec:	ef 91       	pop	r30
     9ee:	bf 91       	pop	r27
     9f0:	af 91       	pop	r26
     9f2:	9f 91       	pop	r25
     9f4:	8f 91       	pop	r24
     9f6:	7f 91       	pop	r23
     9f8:	6f 91       	pop	r22
     9fa:	5f 91       	pop	r21
     9fc:	4f 91       	pop	r20
     9fe:	3f 91       	pop	r19
     a00:	2f 91       	pop	r18
     a02:	0f 90       	pop	r0
     a04:	0b be       	out	0x3b, r0	; 59
     a06:	0f 90       	pop	r0
     a08:	0f be       	out	0x3f, r0	; 63
     a0a:	0f 90       	pop	r0
     a0c:	1f 90       	pop	r1
     a0e:	18 95       	reti

00000a10 <__vector_29>:



//Service routine for ADC sample ready
ISR(ADC_vect){
     a10:	1f 92       	push	r1
     a12:	0f 92       	push	r0
     a14:	0f b6       	in	r0, 0x3f	; 63
     a16:	0f 92       	push	r0
     a18:	11 24       	eor	r1, r1
     a1a:	0b b6       	in	r0, 0x3b	; 59
     a1c:	0f 92       	push	r0
     a1e:	2f 93       	push	r18
     a20:	8f 93       	push	r24
     a22:	9f 93       	push	r25
     a24:	ef 93       	push	r30
     a26:	ff 93       	push	r31
	//ADC_value = ADCH;
	
	if(buffercounter < NUM_SAMPLES && !DFT_ready){
     a28:	80 91 df 02 	lds	r24, 0x02DF	; 0x8002df <buffercounter>
     a2c:	90 91 e0 02 	lds	r25, 0x02E0	; 0x8002e0 <buffercounter+0x1>
     a30:	80 34       	cpi	r24, 0x40	; 64
     a32:	91 05       	cpc	r25, r1
     a34:	84 f4       	brge	.+32     	; 0xa56 <__vector_29+0x46>
     a36:	20 91 e5 02 	lds	r18, 0x02E5	; 0x8002e5 <DFT_ready>
     a3a:	21 11       	cpse	r18, r1
     a3c:	0c c0       	rjmp	.+24     	; 0xa56 <__vector_29+0x46>
		
		DFTBuffer[buffercounter] = ADCH;
     a3e:	20 91 79 00 	lds	r18, 0x0079	; 0x800079 <__TEXT_REGION_LENGTH__+0x7c0079>
     a42:	fc 01       	movw	r30, r24
     a44:	ec 5e       	subi	r30, 0xEC	; 236
     a46:	fd 4f       	sbci	r31, 0xFD	; 253
     a48:	20 83       	st	Z, r18
		buffercounter++;
     a4a:	01 96       	adiw	r24, 0x01	; 1
     a4c:	90 93 e0 02 	sts	0x02E0, r25	; 0x8002e0 <buffercounter+0x1>
     a50:	80 93 df 02 	sts	0x02DF, r24	; 0x8002df <buffercounter>
     a54:	07 c0       	rjmp	.+14     	; 0xa64 <__vector_29+0x54>
			//}
		//else{
			//active_write = 0;
			//active_read = 1;
		//}
		DFT_ready = 1;
     a56:	81 e0       	ldi	r24, 0x01	; 1
     a58:	80 93 e5 02 	sts	0x02E5, r24	; 0x8002e5 <DFT_ready>
		buffercounter = 0;
     a5c:	10 92 e0 02 	sts	0x02E0, r1	; 0x8002e0 <buffercounter+0x1>
     a60:	10 92 df 02 	sts	0x02DF, r1	; 0x8002df <buffercounter>
	}
}
     a64:	ff 91       	pop	r31
     a66:	ef 91       	pop	r30
     a68:	9f 91       	pop	r25
     a6a:	8f 91       	pop	r24
     a6c:	2f 91       	pop	r18
     a6e:	0f 90       	pop	r0
     a70:	0b be       	out	0x3b, r0	; 59
     a72:	0f 90       	pop	r0
     a74:	0f be       	out	0x3f, r0	; 63
     a76:	0f 90       	pop	r0
     a78:	1f 90       	pop	r1
     a7a:	18 95       	reti

00000a7c <ssd1306_command>:
     a7c:	cf 93       	push	r28
     a7e:	c8 2f       	mov	r28, r24
     a80:	80 91 01 02 	lds	r24, 0x0201	; 0x800201 <_i2c_address>
     a84:	85 dd       	rcall	.-1270   	; 0x590 <I2C_Start>
     a86:	80 e0       	ldi	r24, 0x00	; 0
     a88:	a7 dd       	rcall	.-1202   	; 0x5d8 <I2C_Write>
     a8a:	8c 2f       	mov	r24, r28
     a8c:	a5 dd       	rcall	.-1206   	; 0x5d8 <I2C_Write>
     a8e:	ba dd       	rcall	.-1164   	; 0x604 <I2C_Stop>
     a90:	cf 91       	pop	r28
     a92:	08 95       	ret

00000a94 <InitializeDisplay>:
     a94:	8e ea       	ldi	r24, 0xAE	; 174
     a96:	f2 df       	rcall	.-28     	; 0xa7c <ssd1306_command>
     a98:	85 ed       	ldi	r24, 0xD5	; 213
     a9a:	f0 df       	rcall	.-32     	; 0xa7c <ssd1306_command>
     a9c:	80 e8       	ldi	r24, 0x80	; 128
     a9e:	ee df       	rcall	.-36     	; 0xa7c <ssd1306_command>
     aa0:	88 ea       	ldi	r24, 0xA8	; 168
     aa2:	ec df       	rcall	.-40     	; 0xa7c <ssd1306_command>
     aa4:	8f e3       	ldi	r24, 0x3F	; 63
     aa6:	ea df       	rcall	.-44     	; 0xa7c <ssd1306_command>
     aa8:	83 ed       	ldi	r24, 0xD3	; 211
     aaa:	e8 df       	rcall	.-48     	; 0xa7c <ssd1306_command>
     aac:	80 e0       	ldi	r24, 0x00	; 0
     aae:	e6 df       	rcall	.-52     	; 0xa7c <ssd1306_command>
     ab0:	80 e4       	ldi	r24, 0x40	; 64
     ab2:	e4 df       	rcall	.-56     	; 0xa7c <ssd1306_command>
     ab4:	8d e8       	ldi	r24, 0x8D	; 141
     ab6:	e2 df       	rcall	.-60     	; 0xa7c <ssd1306_command>
     ab8:	84 e1       	ldi	r24, 0x14	; 20
     aba:	e0 df       	rcall	.-64     	; 0xa7c <ssd1306_command>
     abc:	80 e2       	ldi	r24, 0x20	; 32
     abe:	de df       	rcall	.-68     	; 0xa7c <ssd1306_command>
     ac0:	80 e0       	ldi	r24, 0x00	; 0
     ac2:	dc df       	rcall	.-72     	; 0xa7c <ssd1306_command>
     ac4:	81 ea       	ldi	r24, 0xA1	; 161
     ac6:	da df       	rcall	.-76     	; 0xa7c <ssd1306_command>
     ac8:	88 ec       	ldi	r24, 0xC8	; 200
     aca:	d8 df       	rcall	.-80     	; 0xa7c <ssd1306_command>
     acc:	8a ed       	ldi	r24, 0xDA	; 218
     ace:	d6 df       	rcall	.-84     	; 0xa7c <ssd1306_command>
     ad0:	82 e1       	ldi	r24, 0x12	; 18
     ad2:	d4 df       	rcall	.-88     	; 0xa7c <ssd1306_command>
     ad4:	81 e8       	ldi	r24, 0x81	; 129
     ad6:	d2 df       	rcall	.-92     	; 0xa7c <ssd1306_command>
     ad8:	8f ec       	ldi	r24, 0xCF	; 207
     ada:	d0 df       	rcall	.-96     	; 0xa7c <ssd1306_command>
     adc:	89 ed       	ldi	r24, 0xD9	; 217
     ade:	ce df       	rcall	.-100    	; 0xa7c <ssd1306_command>
     ae0:	81 ef       	ldi	r24, 0xF1	; 241
     ae2:	cc df       	rcall	.-104    	; 0xa7c <ssd1306_command>
     ae4:	8b ed       	ldi	r24, 0xDB	; 219
     ae6:	ca df       	rcall	.-108    	; 0xa7c <ssd1306_command>
     ae8:	80 e4       	ldi	r24, 0x40	; 64
     aea:	c8 df       	rcall	.-112    	; 0xa7c <ssd1306_command>
     aec:	84 ea       	ldi	r24, 0xA4	; 164
     aee:	c6 df       	rcall	.-116    	; 0xa7c <ssd1306_command>
     af0:	86 ea       	ldi	r24, 0xA6	; 166
     af2:	c4 df       	rcall	.-120    	; 0xa7c <ssd1306_command>
     af4:	8f ea       	ldi	r24, 0xAF	; 175
     af6:	c2 cf       	rjmp	.-124    	; 0xa7c <ssd1306_command>
     af8:	08 95       	ret

00000afa <SendChar>:
     afa:	cf 93       	push	r28
     afc:	c8 2f       	mov	r28, r24
     afe:	80 91 01 02 	lds	r24, 0x0201	; 0x800201 <_i2c_address>
     b02:	46 dd       	rcall	.-1396   	; 0x590 <I2C_Start>
     b04:	80 e4       	ldi	r24, 0x40	; 64
     b06:	68 dd       	rcall	.-1328   	; 0x5d8 <I2C_Write>
     b08:	8c 2f       	mov	r24, r28
     b0a:	66 dd       	rcall	.-1332   	; 0x5d8 <I2C_Write>
     b0c:	7b dd       	rcall	.-1290   	; 0x604 <I2C_Stop>
     b0e:	cf 91       	pop	r28
     b10:	08 95       	ret

00000b12 <setXY>:
     b12:	cf 93       	push	r28
     b14:	c6 2f       	mov	r28, r22
     b16:	80 55       	subi	r24, 0x50	; 80
     b18:	b1 df       	rcall	.-158    	; 0xa7c <ssd1306_command>
     b1a:	8c 2f       	mov	r24, r28
     b1c:	88 0f       	add	r24, r24
     b1e:	88 0f       	add	r24, r24
     b20:	88 0f       	add	r24, r24
     b22:	88 70       	andi	r24, 0x08	; 8
     b24:	ab df       	rcall	.-170    	; 0xa7c <ssd1306_command>
     b26:	8c 2f       	mov	r24, r28
     b28:	90 e0       	ldi	r25, 0x00	; 0
     b2a:	96 95       	lsr	r25
     b2c:	87 95       	ror	r24
     b2e:	8f 70       	andi	r24, 0x0F	; 15
     b30:	80 5f       	subi	r24, 0xF0	; 240
     b32:	a4 df       	rcall	.-184    	; 0xa7c <ssd1306_command>
     b34:	cf 91       	pop	r28
     b36:	08 95       	ret

00000b38 <clear_display>:
     b38:	cf 93       	push	r28
     b3a:	df 93       	push	r29
     b3c:	d0 e0       	ldi	r29, 0x00	; 0
     b3e:	0b c0       	rjmp	.+22     	; 0xb56 <clear_display+0x1e>
     b40:	60 e0       	ldi	r22, 0x00	; 0
     b42:	8d 2f       	mov	r24, r29
     b44:	e6 df       	rcall	.-52     	; 0xb12 <setXY>
     b46:	c0 e0       	ldi	r28, 0x00	; 0
     b48:	03 c0       	rjmp	.+6      	; 0xb50 <clear_display+0x18>
     b4a:	80 e0       	ldi	r24, 0x00	; 0
     b4c:	d6 df       	rcall	.-84     	; 0xafa <SendChar>
     b4e:	cf 5f       	subi	r28, 0xFF	; 255
     b50:	cc 23       	and	r28, r28
     b52:	dc f7       	brge	.-10     	; 0xb4a <clear_display+0x12>
     b54:	df 5f       	subi	r29, 0xFF	; 255
     b56:	d8 30       	cpi	r29, 0x08	; 8
     b58:	98 f3       	brcs	.-26     	; 0xb40 <clear_display+0x8>
     b5a:	df 91       	pop	r29
     b5c:	cf 91       	pop	r28
     b5e:	08 95       	ret

00000b60 <sendStrXY>:
     b60:	0f 93       	push	r16
     b62:	1f 93       	push	r17
     b64:	cf 93       	push	r28
     b66:	df 93       	push	r29
     b68:	ec 01       	movw	r28, r24
     b6a:	86 2f       	mov	r24, r22
     b6c:	06 2f       	mov	r16, r22
     b6e:	64 2f       	mov	r22, r20
     b70:	d0 df       	rcall	.-96     	; 0xb12 <setXY>
     b72:	1c c0       	rjmp	.+56     	; 0xbac <sendStrXY+0x4c>
     b74:	8a 30       	cpi	r24, 0x0A	; 10
     b76:	29 f4       	brne	.+10     	; 0xb82 <sendStrXY+0x22>
     b78:	60 e0       	ldi	r22, 0x00	; 0
     b7a:	81 e0       	ldi	r24, 0x01	; 1
     b7c:	80 0f       	add	r24, r16
     b7e:	c9 df       	rcall	.-110    	; 0xb12 <setXY>
     b80:	21 96       	adiw	r28, 0x01	; 1
     b82:	10 e0       	ldi	r17, 0x00	; 0
     b84:	10 c0       	rjmp	.+32     	; 0xba6 <sendStrXY+0x46>
     b86:	e8 81       	ld	r30, Y
     b88:	f0 e0       	ldi	r31, 0x00	; 0
     b8a:	b0 97       	sbiw	r30, 0x20	; 32
     b8c:	ee 0f       	add	r30, r30
     b8e:	ff 1f       	adc	r31, r31
     b90:	ee 0f       	add	r30, r30
     b92:	ff 1f       	adc	r31, r31
     b94:	ee 0f       	add	r30, r30
     b96:	ff 1f       	adc	r31, r31
     b98:	ee 5e       	subi	r30, 0xEE	; 238
     b9a:	fe 4f       	sbci	r31, 0xFE	; 254
     b9c:	e1 0f       	add	r30, r17
     b9e:	f1 1d       	adc	r31, r1
     ba0:	84 91       	lpm	r24, Z
     ba2:	ab df       	rcall	.-170    	; 0xafa <SendChar>
     ba4:	1f 5f       	subi	r17, 0xFF	; 255
     ba6:	18 30       	cpi	r17, 0x08	; 8
     ba8:	70 f3       	brcs	.-36     	; 0xb86 <sendStrXY+0x26>
     baa:	21 96       	adiw	r28, 0x01	; 1
     bac:	88 81       	ld	r24, Y
     bae:	81 11       	cpse	r24, r1
     bb0:	e1 cf       	rjmp	.-62     	; 0xb74 <sendStrXY+0x14>
     bb2:	df 91       	pop	r29
     bb4:	cf 91       	pop	r28
     bb6:	1f 91       	pop	r17
     bb8:	0f 91       	pop	r16
     bba:	08 95       	ret

00000bbc <print_fonts>:
     bbc:	df 92       	push	r13
     bbe:	ef 92       	push	r14
     bc0:	ff 92       	push	r15
     bc2:	0f 93       	push	r16
     bc4:	1f 93       	push	r17
     bc6:	cf 93       	push	r28
     bc8:	df 93       	push	r29
     bca:	b6 df       	rcall	.-148    	; 0xb38 <clear_display>
     bcc:	e1 2c       	mov	r14, r1
     bce:	f1 2c       	mov	r15, r1
     bd0:	68 94       	set
     bd2:	dd 24       	eor	r13, r13
     bd4:	d5 f8       	bld	r13, 5
     bd6:	27 c0       	rjmp	.+78     	; 0xc26 <print_fonts+0x6a>
     bd8:	60 e0       	ldi	r22, 0x00	; 0
     bda:	8e 2d       	mov	r24, r14
     bdc:	9a df       	rcall	.-204    	; 0xb12 <setXY>
     bde:	00 e0       	ldi	r16, 0x00	; 0
     be0:	10 e0       	ldi	r17, 0x00	; 0
     be2:	19 c0       	rjmp	.+50     	; 0xc16 <print_fonts+0x5a>
     be4:	f8 01       	movw	r30, r16
     be6:	ed 0d       	add	r30, r13
     be8:	f1 1d       	adc	r31, r1
     bea:	b0 97       	sbiw	r30, 0x20	; 32
     bec:	ee 0f       	add	r30, r30
     bee:	ff 1f       	adc	r31, r31
     bf0:	ee 0f       	add	r30, r30
     bf2:	ff 1f       	adc	r31, r31
     bf4:	ee 0f       	add	r30, r30
     bf6:	ff 1f       	adc	r31, r31
     bf8:	ee 5e       	subi	r30, 0xEE	; 238
     bfa:	fe 4f       	sbci	r31, 0xFE	; 254
     bfc:	ec 0f       	add	r30, r28
     bfe:	fd 1f       	adc	r31, r29
     c00:	84 91       	lpm	r24, Z
     c02:	7b df       	rcall	.-266    	; 0xafa <SendChar>
     c04:	21 96       	adiw	r28, 0x01	; 1
     c06:	02 c0       	rjmp	.+4      	; 0xc0c <print_fonts+0x50>
     c08:	c0 e0       	ldi	r28, 0x00	; 0
     c0a:	d0 e0       	ldi	r29, 0x00	; 0
     c0c:	c8 30       	cpi	r28, 0x08	; 8
     c0e:	d1 05       	cpc	r29, r1
     c10:	4c f3       	brlt	.-46     	; 0xbe4 <print_fonts+0x28>
     c12:	0f 5f       	subi	r16, 0xFF	; 255
     c14:	1f 4f       	sbci	r17, 0xFF	; 255
     c16:	00 31       	cpi	r16, 0x10	; 16
     c18:	11 05       	cpc	r17, r1
     c1a:	b4 f3       	brlt	.-20     	; 0xc08 <print_fonts+0x4c>
     c1c:	80 e1       	ldi	r24, 0x10	; 16
     c1e:	d8 0e       	add	r13, r24
     c20:	8f ef       	ldi	r24, 0xFF	; 255
     c22:	e8 1a       	sub	r14, r24
     c24:	f8 0a       	sbc	r15, r24
     c26:	86 e0       	ldi	r24, 0x06	; 6
     c28:	e8 16       	cp	r14, r24
     c2a:	f1 04       	cpc	r15, r1
     c2c:	ac f2       	brlt	.-86     	; 0xbd8 <print_fonts+0x1c>
     c2e:	df 91       	pop	r29
     c30:	cf 91       	pop	r28
     c32:	1f 91       	pop	r17
     c34:	0f 91       	pop	r16
     c36:	ff 90       	pop	r15
     c38:	ef 90       	pop	r14
     c3a:	df 90       	pop	r13
     c3c:	08 95       	ret

00000c3e <init_timer0>:
     c3e:	84 b1       	in	r24, 0x04	; 4
     c40:	80 68       	ori	r24, 0x80	; 128
     c42:	84 b9       	out	0x04, r24	; 4
     c44:	84 b5       	in	r24, 0x24	; 36
     c46:	82 64       	ori	r24, 0x42	; 66
     c48:	84 bd       	out	0x24, r24	; 36
     c4a:	85 b5       	in	r24, 0x25	; 37
     c4c:	82 60       	ori	r24, 0x02	; 2
     c4e:	85 bd       	out	0x25, r24	; 37
     c50:	16 bc       	out	0x26, r1	; 38
     c52:	8c e7       	ldi	r24, 0x7C	; 124
     c54:	87 bd       	out	0x27, r24	; 39
     c56:	ee e6       	ldi	r30, 0x6E	; 110
     c58:	f0 e0       	ldi	r31, 0x00	; 0
     c5a:	80 81       	ld	r24, Z
     c5c:	82 60       	ori	r24, 0x02	; 2
     c5e:	80 83       	st	Z, r24
     c60:	08 95       	ret
     c62:	63 d1       	rcall	.+710    	; 0xf2a <__fp_pscA>
     c64:	58 f0       	brcs	.+22     	; 0xc7c <init_timer0+0x3e>
     c66:	80 e8       	ldi	r24, 0x80	; 128
     c68:	91 e0       	ldi	r25, 0x01	; 1
     c6a:	09 f4       	brne	.+2      	; 0xc6e <init_timer0+0x30>
     c6c:	9e ef       	ldi	r25, 0xFE	; 254
     c6e:	64 d1       	rcall	.+712    	; 0xf38 <__fp_pscB>
     c70:	28 f0       	brcs	.+10     	; 0xc7c <init_timer0+0x3e>
     c72:	40 e8       	ldi	r20, 0x80	; 128
     c74:	51 e0       	ldi	r21, 0x01	; 1
     c76:	59 f4       	brne	.+22     	; 0xc8e <atan2+0xe>
     c78:	5e ef       	ldi	r21, 0xFE	; 254
     c7a:	09 c0       	rjmp	.+18     	; 0xc8e <atan2+0xe>
     c7c:	2e c1       	rjmp	.+604    	; 0xeda <__fp_nan>
     c7e:	96 c1       	rjmp	.+812    	; 0xfac <__fp_zero>

00000c80 <atan2>:
     c80:	e9 2f       	mov	r30, r25
     c82:	e0 78       	andi	r30, 0x80	; 128
     c84:	71 d1       	rcall	.+738    	; 0xf68 <__fp_split3>
     c86:	68 f3       	brcs	.-38     	; 0xc62 <init_timer0+0x24>
     c88:	09 2e       	mov	r0, r25
     c8a:	05 2a       	or	r0, r21
     c8c:	c1 f3       	breq	.-16     	; 0xc7e <init_timer0+0x40>
     c8e:	26 17       	cp	r18, r22
     c90:	37 07       	cpc	r19, r23
     c92:	48 07       	cpc	r20, r24
     c94:	59 07       	cpc	r21, r25
     c96:	38 f0       	brcs	.+14     	; 0xca6 <atan2+0x26>
     c98:	0e 2e       	mov	r0, r30
     c9a:	07 f8       	bld	r0, 7
     c9c:	e0 25       	eor	r30, r0
     c9e:	69 f0       	breq	.+26     	; 0xcba <atan2+0x3a>
     ca0:	e0 25       	eor	r30, r0
     ca2:	e0 64       	ori	r30, 0x40	; 64
     ca4:	0a c0       	rjmp	.+20     	; 0xcba <atan2+0x3a>
     ca6:	ef 63       	ori	r30, 0x3F	; 63
     ca8:	07 f8       	bld	r0, 7
     caa:	00 94       	com	r0
     cac:	07 fa       	bst	r0, 7
     cae:	db 01       	movw	r26, r22
     cb0:	b9 01       	movw	r22, r18
     cb2:	9d 01       	movw	r18, r26
     cb4:	dc 01       	movw	r26, r24
     cb6:	ca 01       	movw	r24, r20
     cb8:	ad 01       	movw	r20, r26
     cba:	ef 93       	push	r30
     cbc:	41 d0       	rcall	.+130    	; 0xd40 <__divsf3_pse>
     cbe:	43 d1       	rcall	.+646    	; 0xf46 <__fp_round>
     cc0:	0a d0       	rcall	.+20     	; 0xcd6 <atan>
     cc2:	5f 91       	pop	r21
     cc4:	55 23       	and	r21, r21
     cc6:	31 f0       	breq	.+12     	; 0xcd4 <atan2+0x54>
     cc8:	2b ed       	ldi	r18, 0xDB	; 219
     cca:	3f e0       	ldi	r19, 0x0F	; 15
     ccc:	49 e4       	ldi	r20, 0x49	; 73
     cce:	50 fd       	sbrc	r21, 0
     cd0:	49 ec       	ldi	r20, 0xC9	; 201
     cd2:	23 c2       	rjmp	.+1094   	; 0x111a <__addsf3>
     cd4:	08 95       	ret

00000cd6 <atan>:
     cd6:	df 93       	push	r29
     cd8:	dd 27       	eor	r29, r29
     cda:	b9 2f       	mov	r27, r25
     cdc:	bf 77       	andi	r27, 0x7F	; 127
     cde:	40 e8       	ldi	r20, 0x80	; 128
     ce0:	5f e3       	ldi	r21, 0x3F	; 63
     ce2:	16 16       	cp	r1, r22
     ce4:	17 06       	cpc	r1, r23
     ce6:	48 07       	cpc	r20, r24
     ce8:	5b 07       	cpc	r21, r27
     cea:	10 f4       	brcc	.+4      	; 0xcf0 <atan+0x1a>
     cec:	d9 2f       	mov	r29, r25
     cee:	65 d1       	rcall	.+714    	; 0xfba <inverse>
     cf0:	9f 93       	push	r25
     cf2:	8f 93       	push	r24
     cf4:	7f 93       	push	r23
     cf6:	6f 93       	push	r22
     cf8:	0c d2       	rcall	.+1048   	; 0x1112 <square>
     cfa:	e4 ee       	ldi	r30, 0xE4	; 228
     cfc:	f0 e0       	ldi	r31, 0x00	; 0
     cfe:	f0 d0       	rcall	.+480    	; 0xee0 <__fp_powser>
     d00:	22 d1       	rcall	.+580    	; 0xf46 <__fp_round>
     d02:	2f 91       	pop	r18
     d04:	3f 91       	pop	r19
     d06:	4f 91       	pop	r20
     d08:	5f 91       	pop	r21
     d0a:	6a d1       	rcall	.+724    	; 0xfe0 <__mulsf3x>
     d0c:	dd 23       	and	r29, r29
     d0e:	49 f0       	breq	.+18     	; 0xd22 <atan+0x4c>
     d10:	90 58       	subi	r25, 0x80	; 128
     d12:	a2 ea       	ldi	r26, 0xA2	; 162
     d14:	2a ed       	ldi	r18, 0xDA	; 218
     d16:	3f e0       	ldi	r19, 0x0F	; 15
     d18:	49 ec       	ldi	r20, 0xC9	; 201
     d1a:	5f e3       	ldi	r21, 0x3F	; 63
     d1c:	d0 78       	andi	r29, 0x80	; 128
     d1e:	5d 27       	eor	r21, r29
     d20:	0d d2       	rcall	.+1050   	; 0x113c <__addsf3x>
     d22:	df 91       	pop	r29
     d24:	10 c1       	rjmp	.+544    	; 0xf46 <__fp_round>
     d26:	08 d1       	rcall	.+528    	; 0xf38 <__fp_pscB>
     d28:	40 f0       	brcs	.+16     	; 0xd3a <atan+0x64>
     d2a:	ff d0       	rcall	.+510    	; 0xf2a <__fp_pscA>
     d2c:	30 f0       	brcs	.+12     	; 0xd3a <atan+0x64>
     d2e:	21 f4       	brne	.+8      	; 0xd38 <atan+0x62>
     d30:	5f 3f       	cpi	r21, 0xFF	; 255
     d32:	19 f0       	breq	.+6      	; 0xd3a <atan+0x64>
     d34:	cc c0       	rjmp	.+408    	; 0xece <__fp_inf>
     d36:	51 11       	cpse	r21, r1
     d38:	3a c1       	rjmp	.+628    	; 0xfae <__fp_szero>
     d3a:	cf c0       	rjmp	.+414    	; 0xeda <__fp_nan>

00000d3c <__divsf3x>:
     d3c:	15 d1       	rcall	.+554    	; 0xf68 <__fp_split3>
     d3e:	98 f3       	brcs	.-26     	; 0xd26 <atan+0x50>

00000d40 <__divsf3_pse>:
     d40:	99 23       	and	r25, r25
     d42:	c9 f3       	breq	.-14     	; 0xd36 <atan+0x60>
     d44:	55 23       	and	r21, r21
     d46:	b1 f3       	breq	.-20     	; 0xd34 <atan+0x5e>
     d48:	95 1b       	sub	r25, r21
     d4a:	55 0b       	sbc	r21, r21
     d4c:	bb 27       	eor	r27, r27
     d4e:	aa 27       	eor	r26, r26
     d50:	62 17       	cp	r22, r18
     d52:	73 07       	cpc	r23, r19
     d54:	84 07       	cpc	r24, r20
     d56:	38 f0       	brcs	.+14     	; 0xd66 <__divsf3_pse+0x26>
     d58:	9f 5f       	subi	r25, 0xFF	; 255
     d5a:	5f 4f       	sbci	r21, 0xFF	; 255
     d5c:	22 0f       	add	r18, r18
     d5e:	33 1f       	adc	r19, r19
     d60:	44 1f       	adc	r20, r20
     d62:	aa 1f       	adc	r26, r26
     d64:	a9 f3       	breq	.-22     	; 0xd50 <__divsf3_pse+0x10>
     d66:	33 d0       	rcall	.+102    	; 0xdce <__divsf3_pse+0x8e>
     d68:	0e 2e       	mov	r0, r30
     d6a:	3a f0       	brmi	.+14     	; 0xd7a <__divsf3_pse+0x3a>
     d6c:	e0 e8       	ldi	r30, 0x80	; 128
     d6e:	30 d0       	rcall	.+96     	; 0xdd0 <__divsf3_pse+0x90>
     d70:	91 50       	subi	r25, 0x01	; 1
     d72:	50 40       	sbci	r21, 0x00	; 0
     d74:	e6 95       	lsr	r30
     d76:	00 1c       	adc	r0, r0
     d78:	ca f7       	brpl	.-14     	; 0xd6c <__divsf3_pse+0x2c>
     d7a:	29 d0       	rcall	.+82     	; 0xdce <__divsf3_pse+0x8e>
     d7c:	fe 2f       	mov	r31, r30
     d7e:	27 d0       	rcall	.+78     	; 0xdce <__divsf3_pse+0x8e>
     d80:	66 0f       	add	r22, r22
     d82:	77 1f       	adc	r23, r23
     d84:	88 1f       	adc	r24, r24
     d86:	bb 1f       	adc	r27, r27
     d88:	26 17       	cp	r18, r22
     d8a:	37 07       	cpc	r19, r23
     d8c:	48 07       	cpc	r20, r24
     d8e:	ab 07       	cpc	r26, r27
     d90:	b0 e8       	ldi	r27, 0x80	; 128
     d92:	09 f0       	breq	.+2      	; 0xd96 <__divsf3_pse+0x56>
     d94:	bb 0b       	sbc	r27, r27
     d96:	80 2d       	mov	r24, r0
     d98:	bf 01       	movw	r22, r30
     d9a:	ff 27       	eor	r31, r31
     d9c:	93 58       	subi	r25, 0x83	; 131
     d9e:	5f 4f       	sbci	r21, 0xFF	; 255
     da0:	2a f0       	brmi	.+10     	; 0xdac <__divsf3_pse+0x6c>
     da2:	9e 3f       	cpi	r25, 0xFE	; 254
     da4:	51 05       	cpc	r21, r1
     da6:	68 f0       	brcs	.+26     	; 0xdc2 <__divsf3_pse+0x82>
     da8:	92 c0       	rjmp	.+292    	; 0xece <__fp_inf>
     daa:	01 c1       	rjmp	.+514    	; 0xfae <__fp_szero>
     dac:	5f 3f       	cpi	r21, 0xFF	; 255
     dae:	ec f3       	brlt	.-6      	; 0xdaa <__divsf3_pse+0x6a>
     db0:	98 3e       	cpi	r25, 0xE8	; 232
     db2:	dc f3       	brlt	.-10     	; 0xdaa <__divsf3_pse+0x6a>
     db4:	86 95       	lsr	r24
     db6:	77 95       	ror	r23
     db8:	67 95       	ror	r22
     dba:	b7 95       	ror	r27
     dbc:	f7 95       	ror	r31
     dbe:	9f 5f       	subi	r25, 0xFF	; 255
     dc0:	c9 f7       	brne	.-14     	; 0xdb4 <__divsf3_pse+0x74>
     dc2:	88 0f       	add	r24, r24
     dc4:	91 1d       	adc	r25, r1
     dc6:	96 95       	lsr	r25
     dc8:	87 95       	ror	r24
     dca:	97 f9       	bld	r25, 7
     dcc:	08 95       	ret
     dce:	e1 e0       	ldi	r30, 0x01	; 1
     dd0:	66 0f       	add	r22, r22
     dd2:	77 1f       	adc	r23, r23
     dd4:	88 1f       	adc	r24, r24
     dd6:	bb 1f       	adc	r27, r27
     dd8:	62 17       	cp	r22, r18
     dda:	73 07       	cpc	r23, r19
     ddc:	84 07       	cpc	r24, r20
     dde:	ba 07       	cpc	r27, r26
     de0:	20 f0       	brcs	.+8      	; 0xdea <__divsf3_pse+0xaa>
     de2:	62 1b       	sub	r22, r18
     de4:	73 0b       	sbc	r23, r19
     de6:	84 0b       	sbc	r24, r20
     de8:	ba 0b       	sbc	r27, r26
     dea:	ee 1f       	adc	r30, r30
     dec:	88 f7       	brcc	.-30     	; 0xdd0 <__divsf3_pse+0x90>
     dee:	e0 95       	com	r30
     df0:	08 95       	ret

00000df2 <__fixsfsi>:
     df2:	04 d0       	rcall	.+8      	; 0xdfc <__fixunssfsi>
     df4:	68 94       	set
     df6:	b1 11       	cpse	r27, r1
     df8:	da c0       	rjmp	.+436    	; 0xfae <__fp_szero>
     dfa:	08 95       	ret

00000dfc <__fixunssfsi>:
     dfc:	bd d0       	rcall	.+378    	; 0xf78 <__fp_splitA>
     dfe:	88 f0       	brcs	.+34     	; 0xe22 <__fixunssfsi+0x26>
     e00:	9f 57       	subi	r25, 0x7F	; 127
     e02:	90 f0       	brcs	.+36     	; 0xe28 <__fixunssfsi+0x2c>
     e04:	b9 2f       	mov	r27, r25
     e06:	99 27       	eor	r25, r25
     e08:	b7 51       	subi	r27, 0x17	; 23
     e0a:	a0 f0       	brcs	.+40     	; 0xe34 <__fixunssfsi+0x38>
     e0c:	d1 f0       	breq	.+52     	; 0xe42 <__fixunssfsi+0x46>
     e0e:	66 0f       	add	r22, r22
     e10:	77 1f       	adc	r23, r23
     e12:	88 1f       	adc	r24, r24
     e14:	99 1f       	adc	r25, r25
     e16:	1a f0       	brmi	.+6      	; 0xe1e <__fixunssfsi+0x22>
     e18:	ba 95       	dec	r27
     e1a:	c9 f7       	brne	.-14     	; 0xe0e <__fixunssfsi+0x12>
     e1c:	12 c0       	rjmp	.+36     	; 0xe42 <__fixunssfsi+0x46>
     e1e:	b1 30       	cpi	r27, 0x01	; 1
     e20:	81 f0       	breq	.+32     	; 0xe42 <__fixunssfsi+0x46>
     e22:	c4 d0       	rcall	.+392    	; 0xfac <__fp_zero>
     e24:	b1 e0       	ldi	r27, 0x01	; 1
     e26:	08 95       	ret
     e28:	c1 c0       	rjmp	.+386    	; 0xfac <__fp_zero>
     e2a:	67 2f       	mov	r22, r23
     e2c:	78 2f       	mov	r23, r24
     e2e:	88 27       	eor	r24, r24
     e30:	b8 5f       	subi	r27, 0xF8	; 248
     e32:	39 f0       	breq	.+14     	; 0xe42 <__fixunssfsi+0x46>
     e34:	b9 3f       	cpi	r27, 0xF9	; 249
     e36:	cc f3       	brlt	.-14     	; 0xe2a <__fixunssfsi+0x2e>
     e38:	86 95       	lsr	r24
     e3a:	77 95       	ror	r23
     e3c:	67 95       	ror	r22
     e3e:	b3 95       	inc	r27
     e40:	d9 f7       	brne	.-10     	; 0xe38 <__fixunssfsi+0x3c>
     e42:	3e f4       	brtc	.+14     	; 0xe52 <__fixunssfsi+0x56>
     e44:	90 95       	com	r25
     e46:	80 95       	com	r24
     e48:	70 95       	com	r23
     e4a:	61 95       	neg	r22
     e4c:	7f 4f       	sbci	r23, 0xFF	; 255
     e4e:	8f 4f       	sbci	r24, 0xFF	; 255
     e50:	9f 4f       	sbci	r25, 0xFF	; 255
     e52:	08 95       	ret

00000e54 <__floatunsisf>:
     e54:	e8 94       	clt
     e56:	09 c0       	rjmp	.+18     	; 0xe6a <__floatsisf+0x12>

00000e58 <__floatsisf>:
     e58:	97 fb       	bst	r25, 7
     e5a:	3e f4       	brtc	.+14     	; 0xe6a <__floatsisf+0x12>
     e5c:	90 95       	com	r25
     e5e:	80 95       	com	r24
     e60:	70 95       	com	r23
     e62:	61 95       	neg	r22
     e64:	7f 4f       	sbci	r23, 0xFF	; 255
     e66:	8f 4f       	sbci	r24, 0xFF	; 255
     e68:	9f 4f       	sbci	r25, 0xFF	; 255
     e6a:	99 23       	and	r25, r25
     e6c:	a9 f0       	breq	.+42     	; 0xe98 <__floatsisf+0x40>
     e6e:	f9 2f       	mov	r31, r25
     e70:	96 e9       	ldi	r25, 0x96	; 150
     e72:	bb 27       	eor	r27, r27
     e74:	93 95       	inc	r25
     e76:	f6 95       	lsr	r31
     e78:	87 95       	ror	r24
     e7a:	77 95       	ror	r23
     e7c:	67 95       	ror	r22
     e7e:	b7 95       	ror	r27
     e80:	f1 11       	cpse	r31, r1
     e82:	f8 cf       	rjmp	.-16     	; 0xe74 <__floatsisf+0x1c>
     e84:	fa f4       	brpl	.+62     	; 0xec4 <__floatsisf+0x6c>
     e86:	bb 0f       	add	r27, r27
     e88:	11 f4       	brne	.+4      	; 0xe8e <__floatsisf+0x36>
     e8a:	60 ff       	sbrs	r22, 0
     e8c:	1b c0       	rjmp	.+54     	; 0xec4 <__floatsisf+0x6c>
     e8e:	6f 5f       	subi	r22, 0xFF	; 255
     e90:	7f 4f       	sbci	r23, 0xFF	; 255
     e92:	8f 4f       	sbci	r24, 0xFF	; 255
     e94:	9f 4f       	sbci	r25, 0xFF	; 255
     e96:	16 c0       	rjmp	.+44     	; 0xec4 <__floatsisf+0x6c>
     e98:	88 23       	and	r24, r24
     e9a:	11 f0       	breq	.+4      	; 0xea0 <__floatsisf+0x48>
     e9c:	96 e9       	ldi	r25, 0x96	; 150
     e9e:	11 c0       	rjmp	.+34     	; 0xec2 <__floatsisf+0x6a>
     ea0:	77 23       	and	r23, r23
     ea2:	21 f0       	breq	.+8      	; 0xeac <__floatsisf+0x54>
     ea4:	9e e8       	ldi	r25, 0x8E	; 142
     ea6:	87 2f       	mov	r24, r23
     ea8:	76 2f       	mov	r23, r22
     eaa:	05 c0       	rjmp	.+10     	; 0xeb6 <__floatsisf+0x5e>
     eac:	66 23       	and	r22, r22
     eae:	71 f0       	breq	.+28     	; 0xecc <__floatsisf+0x74>
     eb0:	96 e8       	ldi	r25, 0x86	; 134
     eb2:	86 2f       	mov	r24, r22
     eb4:	70 e0       	ldi	r23, 0x00	; 0
     eb6:	60 e0       	ldi	r22, 0x00	; 0
     eb8:	2a f0       	brmi	.+10     	; 0xec4 <__floatsisf+0x6c>
     eba:	9a 95       	dec	r25
     ebc:	66 0f       	add	r22, r22
     ebe:	77 1f       	adc	r23, r23
     ec0:	88 1f       	adc	r24, r24
     ec2:	da f7       	brpl	.-10     	; 0xeba <__floatsisf+0x62>
     ec4:	88 0f       	add	r24, r24
     ec6:	96 95       	lsr	r25
     ec8:	87 95       	ror	r24
     eca:	97 f9       	bld	r25, 7
     ecc:	08 95       	ret

00000ece <__fp_inf>:
     ece:	97 f9       	bld	r25, 7
     ed0:	9f 67       	ori	r25, 0x7F	; 127
     ed2:	80 e8       	ldi	r24, 0x80	; 128
     ed4:	70 e0       	ldi	r23, 0x00	; 0
     ed6:	60 e0       	ldi	r22, 0x00	; 0
     ed8:	08 95       	ret

00000eda <__fp_nan>:
     eda:	9f ef       	ldi	r25, 0xFF	; 255
     edc:	80 ec       	ldi	r24, 0xC0	; 192
     ede:	08 95       	ret

00000ee0 <__fp_powser>:
     ee0:	df 93       	push	r29
     ee2:	cf 93       	push	r28
     ee4:	1f 93       	push	r17
     ee6:	0f 93       	push	r16
     ee8:	ff 92       	push	r15
     eea:	ef 92       	push	r14
     eec:	df 92       	push	r13
     eee:	7b 01       	movw	r14, r22
     ef0:	8c 01       	movw	r16, r24
     ef2:	68 94       	set
     ef4:	05 c0       	rjmp	.+10     	; 0xf00 <__fp_powser+0x20>
     ef6:	da 2e       	mov	r13, r26
     ef8:	ef 01       	movw	r28, r30
     efa:	72 d0       	rcall	.+228    	; 0xfe0 <__mulsf3x>
     efc:	fe 01       	movw	r30, r28
     efe:	e8 94       	clt
     f00:	a5 91       	lpm	r26, Z+
     f02:	25 91       	lpm	r18, Z+
     f04:	35 91       	lpm	r19, Z+
     f06:	45 91       	lpm	r20, Z+
     f08:	55 91       	lpm	r21, Z+
     f0a:	ae f3       	brts	.-22     	; 0xef6 <__fp_powser+0x16>
     f0c:	ef 01       	movw	r28, r30
     f0e:	16 d1       	rcall	.+556    	; 0x113c <__addsf3x>
     f10:	fe 01       	movw	r30, r28
     f12:	97 01       	movw	r18, r14
     f14:	a8 01       	movw	r20, r16
     f16:	da 94       	dec	r13
     f18:	79 f7       	brne	.-34     	; 0xef8 <__fp_powser+0x18>
     f1a:	df 90       	pop	r13
     f1c:	ef 90       	pop	r14
     f1e:	ff 90       	pop	r15
     f20:	0f 91       	pop	r16
     f22:	1f 91       	pop	r17
     f24:	cf 91       	pop	r28
     f26:	df 91       	pop	r29
     f28:	08 95       	ret

00000f2a <__fp_pscA>:
     f2a:	00 24       	eor	r0, r0
     f2c:	0a 94       	dec	r0
     f2e:	16 16       	cp	r1, r22
     f30:	17 06       	cpc	r1, r23
     f32:	18 06       	cpc	r1, r24
     f34:	09 06       	cpc	r0, r25
     f36:	08 95       	ret

00000f38 <__fp_pscB>:
     f38:	00 24       	eor	r0, r0
     f3a:	0a 94       	dec	r0
     f3c:	12 16       	cp	r1, r18
     f3e:	13 06       	cpc	r1, r19
     f40:	14 06       	cpc	r1, r20
     f42:	05 06       	cpc	r0, r21
     f44:	08 95       	ret

00000f46 <__fp_round>:
     f46:	09 2e       	mov	r0, r25
     f48:	03 94       	inc	r0
     f4a:	00 0c       	add	r0, r0
     f4c:	11 f4       	brne	.+4      	; 0xf52 <__fp_round+0xc>
     f4e:	88 23       	and	r24, r24
     f50:	52 f0       	brmi	.+20     	; 0xf66 <__fp_round+0x20>
     f52:	bb 0f       	add	r27, r27
     f54:	40 f4       	brcc	.+16     	; 0xf66 <__fp_round+0x20>
     f56:	bf 2b       	or	r27, r31
     f58:	11 f4       	brne	.+4      	; 0xf5e <__fp_round+0x18>
     f5a:	60 ff       	sbrs	r22, 0
     f5c:	04 c0       	rjmp	.+8      	; 0xf66 <__fp_round+0x20>
     f5e:	6f 5f       	subi	r22, 0xFF	; 255
     f60:	7f 4f       	sbci	r23, 0xFF	; 255
     f62:	8f 4f       	sbci	r24, 0xFF	; 255
     f64:	9f 4f       	sbci	r25, 0xFF	; 255
     f66:	08 95       	ret

00000f68 <__fp_split3>:
     f68:	57 fd       	sbrc	r21, 7
     f6a:	90 58       	subi	r25, 0x80	; 128
     f6c:	44 0f       	add	r20, r20
     f6e:	55 1f       	adc	r21, r21
     f70:	59 f0       	breq	.+22     	; 0xf88 <__fp_splitA+0x10>
     f72:	5f 3f       	cpi	r21, 0xFF	; 255
     f74:	71 f0       	breq	.+28     	; 0xf92 <__fp_splitA+0x1a>
     f76:	47 95       	ror	r20

00000f78 <__fp_splitA>:
     f78:	88 0f       	add	r24, r24
     f7a:	97 fb       	bst	r25, 7
     f7c:	99 1f       	adc	r25, r25
     f7e:	61 f0       	breq	.+24     	; 0xf98 <__fp_splitA+0x20>
     f80:	9f 3f       	cpi	r25, 0xFF	; 255
     f82:	79 f0       	breq	.+30     	; 0xfa2 <__fp_splitA+0x2a>
     f84:	87 95       	ror	r24
     f86:	08 95       	ret
     f88:	12 16       	cp	r1, r18
     f8a:	13 06       	cpc	r1, r19
     f8c:	14 06       	cpc	r1, r20
     f8e:	55 1f       	adc	r21, r21
     f90:	f2 cf       	rjmp	.-28     	; 0xf76 <__fp_split3+0xe>
     f92:	46 95       	lsr	r20
     f94:	f1 df       	rcall	.-30     	; 0xf78 <__fp_splitA>
     f96:	08 c0       	rjmp	.+16     	; 0xfa8 <__fp_splitA+0x30>
     f98:	16 16       	cp	r1, r22
     f9a:	17 06       	cpc	r1, r23
     f9c:	18 06       	cpc	r1, r24
     f9e:	99 1f       	adc	r25, r25
     fa0:	f1 cf       	rjmp	.-30     	; 0xf84 <__fp_splitA+0xc>
     fa2:	86 95       	lsr	r24
     fa4:	71 05       	cpc	r23, r1
     fa6:	61 05       	cpc	r22, r1
     fa8:	08 94       	sec
     faa:	08 95       	ret

00000fac <__fp_zero>:
     fac:	e8 94       	clt

00000fae <__fp_szero>:
     fae:	bb 27       	eor	r27, r27
     fb0:	66 27       	eor	r22, r22
     fb2:	77 27       	eor	r23, r23
     fb4:	cb 01       	movw	r24, r22
     fb6:	97 f9       	bld	r25, 7
     fb8:	08 95       	ret

00000fba <inverse>:
     fba:	9b 01       	movw	r18, r22
     fbc:	ac 01       	movw	r20, r24
     fbe:	60 e0       	ldi	r22, 0x00	; 0
     fc0:	70 e0       	ldi	r23, 0x00	; 0
     fc2:	80 e8       	ldi	r24, 0x80	; 128
     fc4:	9f e3       	ldi	r25, 0x3F	; 63
     fc6:	0d c1       	rjmp	.+538    	; 0x11e2 <__divsf3>

00000fc8 <__mulsf3>:
     fc8:	0b d0       	rcall	.+22     	; 0xfe0 <__mulsf3x>
     fca:	bd cf       	rjmp	.-134    	; 0xf46 <__fp_round>
     fcc:	ae df       	rcall	.-164    	; 0xf2a <__fp_pscA>
     fce:	28 f0       	brcs	.+10     	; 0xfda <__mulsf3+0x12>
     fd0:	b3 df       	rcall	.-154    	; 0xf38 <__fp_pscB>
     fd2:	18 f0       	brcs	.+6      	; 0xfda <__mulsf3+0x12>
     fd4:	95 23       	and	r25, r21
     fd6:	09 f0       	breq	.+2      	; 0xfda <__mulsf3+0x12>
     fd8:	7a cf       	rjmp	.-268    	; 0xece <__fp_inf>
     fda:	7f cf       	rjmp	.-258    	; 0xeda <__fp_nan>
     fdc:	11 24       	eor	r1, r1
     fde:	e7 cf       	rjmp	.-50     	; 0xfae <__fp_szero>

00000fe0 <__mulsf3x>:
     fe0:	c3 df       	rcall	.-122    	; 0xf68 <__fp_split3>
     fe2:	a0 f3       	brcs	.-24     	; 0xfcc <__mulsf3+0x4>

00000fe4 <__mulsf3_pse>:
     fe4:	95 9f       	mul	r25, r21
     fe6:	d1 f3       	breq	.-12     	; 0xfdc <__mulsf3+0x14>
     fe8:	95 0f       	add	r25, r21
     fea:	50 e0       	ldi	r21, 0x00	; 0
     fec:	55 1f       	adc	r21, r21
     fee:	62 9f       	mul	r22, r18
     ff0:	f0 01       	movw	r30, r0
     ff2:	72 9f       	mul	r23, r18
     ff4:	bb 27       	eor	r27, r27
     ff6:	f0 0d       	add	r31, r0
     ff8:	b1 1d       	adc	r27, r1
     ffa:	63 9f       	mul	r22, r19
     ffc:	aa 27       	eor	r26, r26
     ffe:	f0 0d       	add	r31, r0
    1000:	b1 1d       	adc	r27, r1
    1002:	aa 1f       	adc	r26, r26
    1004:	64 9f       	mul	r22, r20
    1006:	66 27       	eor	r22, r22
    1008:	b0 0d       	add	r27, r0
    100a:	a1 1d       	adc	r26, r1
    100c:	66 1f       	adc	r22, r22
    100e:	82 9f       	mul	r24, r18
    1010:	22 27       	eor	r18, r18
    1012:	b0 0d       	add	r27, r0
    1014:	a1 1d       	adc	r26, r1
    1016:	62 1f       	adc	r22, r18
    1018:	73 9f       	mul	r23, r19
    101a:	b0 0d       	add	r27, r0
    101c:	a1 1d       	adc	r26, r1
    101e:	62 1f       	adc	r22, r18
    1020:	83 9f       	mul	r24, r19
    1022:	a0 0d       	add	r26, r0
    1024:	61 1d       	adc	r22, r1
    1026:	22 1f       	adc	r18, r18
    1028:	74 9f       	mul	r23, r20
    102a:	33 27       	eor	r19, r19
    102c:	a0 0d       	add	r26, r0
    102e:	61 1d       	adc	r22, r1
    1030:	23 1f       	adc	r18, r19
    1032:	84 9f       	mul	r24, r20
    1034:	60 0d       	add	r22, r0
    1036:	21 1d       	adc	r18, r1
    1038:	82 2f       	mov	r24, r18
    103a:	76 2f       	mov	r23, r22
    103c:	6a 2f       	mov	r22, r26
    103e:	11 24       	eor	r1, r1
    1040:	9f 57       	subi	r25, 0x7F	; 127
    1042:	50 40       	sbci	r21, 0x00	; 0
    1044:	8a f0       	brmi	.+34     	; 0x1068 <__EEPROM_REGION_LENGTH__+0x68>
    1046:	e1 f0       	breq	.+56     	; 0x1080 <__EEPROM_REGION_LENGTH__+0x80>
    1048:	88 23       	and	r24, r24
    104a:	4a f0       	brmi	.+18     	; 0x105e <__EEPROM_REGION_LENGTH__+0x5e>
    104c:	ee 0f       	add	r30, r30
    104e:	ff 1f       	adc	r31, r31
    1050:	bb 1f       	adc	r27, r27
    1052:	66 1f       	adc	r22, r22
    1054:	77 1f       	adc	r23, r23
    1056:	88 1f       	adc	r24, r24
    1058:	91 50       	subi	r25, 0x01	; 1
    105a:	50 40       	sbci	r21, 0x00	; 0
    105c:	a9 f7       	brne	.-22     	; 0x1048 <__EEPROM_REGION_LENGTH__+0x48>
    105e:	9e 3f       	cpi	r25, 0xFE	; 254
    1060:	51 05       	cpc	r21, r1
    1062:	70 f0       	brcs	.+28     	; 0x1080 <__EEPROM_REGION_LENGTH__+0x80>
    1064:	34 cf       	rjmp	.-408    	; 0xece <__fp_inf>
    1066:	a3 cf       	rjmp	.-186    	; 0xfae <__fp_szero>
    1068:	5f 3f       	cpi	r21, 0xFF	; 255
    106a:	ec f3       	brlt	.-6      	; 0x1066 <__EEPROM_REGION_LENGTH__+0x66>
    106c:	98 3e       	cpi	r25, 0xE8	; 232
    106e:	dc f3       	brlt	.-10     	; 0x1066 <__EEPROM_REGION_LENGTH__+0x66>
    1070:	86 95       	lsr	r24
    1072:	77 95       	ror	r23
    1074:	67 95       	ror	r22
    1076:	b7 95       	ror	r27
    1078:	f7 95       	ror	r31
    107a:	e7 95       	ror	r30
    107c:	9f 5f       	subi	r25, 0xFF	; 255
    107e:	c1 f7       	brne	.-16     	; 0x1070 <__EEPROM_REGION_LENGTH__+0x70>
    1080:	fe 2b       	or	r31, r30
    1082:	88 0f       	add	r24, r24
    1084:	91 1d       	adc	r25, r1
    1086:	96 95       	lsr	r25
    1088:	87 95       	ror	r24
    108a:	97 f9       	bld	r25, 7
    108c:	08 95       	ret
    108e:	11 f4       	brne	.+4      	; 0x1094 <__EEPROM_REGION_LENGTH__+0x94>
    1090:	0e f4       	brtc	.+2      	; 0x1094 <__EEPROM_REGION_LENGTH__+0x94>
    1092:	23 cf       	rjmp	.-442    	; 0xeda <__fp_nan>
    1094:	a8 c0       	rjmp	.+336    	; 0x11e6 <__fp_mpack>

00001096 <sqrt>:
    1096:	70 df       	rcall	.-288    	; 0xf78 <__fp_splitA>
    1098:	d0 f3       	brcs	.-12     	; 0x108e <__EEPROM_REGION_LENGTH__+0x8e>
    109a:	99 23       	and	r25, r25
    109c:	d9 f3       	breq	.-10     	; 0x1094 <__EEPROM_REGION_LENGTH__+0x94>
    109e:	ce f3       	brts	.-14     	; 0x1092 <__EEPROM_REGION_LENGTH__+0x92>
    10a0:	9f 57       	subi	r25, 0x7F	; 127
    10a2:	55 0b       	sbc	r21, r21
    10a4:	87 ff       	sbrs	r24, 7
    10a6:	ad d0       	rcall	.+346    	; 0x1202 <__fp_norm2>
    10a8:	00 24       	eor	r0, r0
    10aa:	a0 e6       	ldi	r26, 0x60	; 96
    10ac:	40 ea       	ldi	r20, 0xA0	; 160
    10ae:	90 01       	movw	r18, r0
    10b0:	80 58       	subi	r24, 0x80	; 128
    10b2:	56 95       	lsr	r21
    10b4:	97 95       	ror	r25
    10b6:	28 f4       	brcc	.+10     	; 0x10c2 <sqrt+0x2c>
    10b8:	80 5c       	subi	r24, 0xC0	; 192
    10ba:	66 0f       	add	r22, r22
    10bc:	77 1f       	adc	r23, r23
    10be:	88 1f       	adc	r24, r24
    10c0:	20 f0       	brcs	.+8      	; 0x10ca <sqrt+0x34>
    10c2:	26 17       	cp	r18, r22
    10c4:	37 07       	cpc	r19, r23
    10c6:	48 07       	cpc	r20, r24
    10c8:	30 f4       	brcc	.+12     	; 0x10d6 <sqrt+0x40>
    10ca:	62 1b       	sub	r22, r18
    10cc:	73 0b       	sbc	r23, r19
    10ce:	84 0b       	sbc	r24, r20
    10d0:	20 29       	or	r18, r0
    10d2:	31 29       	or	r19, r1
    10d4:	4a 2b       	or	r20, r26
    10d6:	a6 95       	lsr	r26
    10d8:	17 94       	ror	r1
    10da:	07 94       	ror	r0
    10dc:	20 25       	eor	r18, r0
    10de:	31 25       	eor	r19, r1
    10e0:	4a 27       	eor	r20, r26
    10e2:	58 f7       	brcc	.-42     	; 0x10ba <sqrt+0x24>
    10e4:	66 0f       	add	r22, r22
    10e6:	77 1f       	adc	r23, r23
    10e8:	88 1f       	adc	r24, r24
    10ea:	20 f0       	brcs	.+8      	; 0x10f4 <sqrt+0x5e>
    10ec:	26 17       	cp	r18, r22
    10ee:	37 07       	cpc	r19, r23
    10f0:	48 07       	cpc	r20, r24
    10f2:	30 f4       	brcc	.+12     	; 0x1100 <sqrt+0x6a>
    10f4:	62 0b       	sbc	r22, r18
    10f6:	73 0b       	sbc	r23, r19
    10f8:	84 0b       	sbc	r24, r20
    10fa:	20 0d       	add	r18, r0
    10fc:	31 1d       	adc	r19, r1
    10fe:	41 1d       	adc	r20, r1
    1100:	a0 95       	com	r26
    1102:	81 f7       	brne	.-32     	; 0x10e4 <sqrt+0x4e>
    1104:	b9 01       	movw	r22, r18
    1106:	84 2f       	mov	r24, r20
    1108:	91 58       	subi	r25, 0x81	; 129
    110a:	88 0f       	add	r24, r24
    110c:	96 95       	lsr	r25
    110e:	87 95       	ror	r24
    1110:	08 95       	ret

00001112 <square>:
    1112:	9b 01       	movw	r18, r22
    1114:	ac 01       	movw	r20, r24
    1116:	58 cf       	rjmp	.-336    	; 0xfc8 <__mulsf3>

00001118 <__subsf3>:
    1118:	50 58       	subi	r21, 0x80	; 128

0000111a <__addsf3>:
    111a:	bb 27       	eor	r27, r27
    111c:	aa 27       	eor	r26, r26
    111e:	0e d0       	rcall	.+28     	; 0x113c <__addsf3x>
    1120:	12 cf       	rjmp	.-476    	; 0xf46 <__fp_round>
    1122:	03 df       	rcall	.-506    	; 0xf2a <__fp_pscA>
    1124:	30 f0       	brcs	.+12     	; 0x1132 <__addsf3+0x18>
    1126:	08 df       	rcall	.-496    	; 0xf38 <__fp_pscB>
    1128:	20 f0       	brcs	.+8      	; 0x1132 <__addsf3+0x18>
    112a:	31 f4       	brne	.+12     	; 0x1138 <__addsf3+0x1e>
    112c:	9f 3f       	cpi	r25, 0xFF	; 255
    112e:	11 f4       	brne	.+4      	; 0x1134 <__addsf3+0x1a>
    1130:	1e f4       	brtc	.+6      	; 0x1138 <__addsf3+0x1e>
    1132:	d3 ce       	rjmp	.-602    	; 0xeda <__fp_nan>
    1134:	0e f4       	brtc	.+2      	; 0x1138 <__addsf3+0x1e>
    1136:	e0 95       	com	r30
    1138:	e7 fb       	bst	r30, 7
    113a:	c9 ce       	rjmp	.-622    	; 0xece <__fp_inf>

0000113c <__addsf3x>:
    113c:	e9 2f       	mov	r30, r25
    113e:	14 df       	rcall	.-472    	; 0xf68 <__fp_split3>
    1140:	80 f3       	brcs	.-32     	; 0x1122 <__addsf3+0x8>
    1142:	ba 17       	cp	r27, r26
    1144:	62 07       	cpc	r22, r18
    1146:	73 07       	cpc	r23, r19
    1148:	84 07       	cpc	r24, r20
    114a:	95 07       	cpc	r25, r21
    114c:	18 f0       	brcs	.+6      	; 0x1154 <__addsf3x+0x18>
    114e:	71 f4       	brne	.+28     	; 0x116c <__addsf3x+0x30>
    1150:	9e f5       	brtc	.+102    	; 0x11b8 <__addsf3x+0x7c>
    1152:	2c cf       	rjmp	.-424    	; 0xfac <__fp_zero>
    1154:	0e f4       	brtc	.+2      	; 0x1158 <__addsf3x+0x1c>
    1156:	e0 95       	com	r30
    1158:	0b 2e       	mov	r0, r27
    115a:	ba 2f       	mov	r27, r26
    115c:	a0 2d       	mov	r26, r0
    115e:	0b 01       	movw	r0, r22
    1160:	b9 01       	movw	r22, r18
    1162:	90 01       	movw	r18, r0
    1164:	0c 01       	movw	r0, r24
    1166:	ca 01       	movw	r24, r20
    1168:	a0 01       	movw	r20, r0
    116a:	11 24       	eor	r1, r1
    116c:	ff 27       	eor	r31, r31
    116e:	59 1b       	sub	r21, r25
    1170:	99 f0       	breq	.+38     	; 0x1198 <__addsf3x+0x5c>
    1172:	59 3f       	cpi	r21, 0xF9	; 249
    1174:	50 f4       	brcc	.+20     	; 0x118a <__addsf3x+0x4e>
    1176:	50 3e       	cpi	r21, 0xE0	; 224
    1178:	68 f1       	brcs	.+90     	; 0x11d4 <__addsf3x+0x98>
    117a:	1a 16       	cp	r1, r26
    117c:	f0 40       	sbci	r31, 0x00	; 0
    117e:	a2 2f       	mov	r26, r18
    1180:	23 2f       	mov	r18, r19
    1182:	34 2f       	mov	r19, r20
    1184:	44 27       	eor	r20, r20
    1186:	58 5f       	subi	r21, 0xF8	; 248
    1188:	f3 cf       	rjmp	.-26     	; 0x1170 <__addsf3x+0x34>
    118a:	46 95       	lsr	r20
    118c:	37 95       	ror	r19
    118e:	27 95       	ror	r18
    1190:	a7 95       	ror	r26
    1192:	f0 40       	sbci	r31, 0x00	; 0
    1194:	53 95       	inc	r21
    1196:	c9 f7       	brne	.-14     	; 0x118a <__addsf3x+0x4e>
    1198:	7e f4       	brtc	.+30     	; 0x11b8 <__addsf3x+0x7c>
    119a:	1f 16       	cp	r1, r31
    119c:	ba 0b       	sbc	r27, r26
    119e:	62 0b       	sbc	r22, r18
    11a0:	73 0b       	sbc	r23, r19
    11a2:	84 0b       	sbc	r24, r20
    11a4:	ba f0       	brmi	.+46     	; 0x11d4 <__addsf3x+0x98>
    11a6:	91 50       	subi	r25, 0x01	; 1
    11a8:	a1 f0       	breq	.+40     	; 0x11d2 <__addsf3x+0x96>
    11aa:	ff 0f       	add	r31, r31
    11ac:	bb 1f       	adc	r27, r27
    11ae:	66 1f       	adc	r22, r22
    11b0:	77 1f       	adc	r23, r23
    11b2:	88 1f       	adc	r24, r24
    11b4:	c2 f7       	brpl	.-16     	; 0x11a6 <__addsf3x+0x6a>
    11b6:	0e c0       	rjmp	.+28     	; 0x11d4 <__addsf3x+0x98>
    11b8:	ba 0f       	add	r27, r26
    11ba:	62 1f       	adc	r22, r18
    11bc:	73 1f       	adc	r23, r19
    11be:	84 1f       	adc	r24, r20
    11c0:	48 f4       	brcc	.+18     	; 0x11d4 <__addsf3x+0x98>
    11c2:	87 95       	ror	r24
    11c4:	77 95       	ror	r23
    11c6:	67 95       	ror	r22
    11c8:	b7 95       	ror	r27
    11ca:	f7 95       	ror	r31
    11cc:	9e 3f       	cpi	r25, 0xFE	; 254
    11ce:	08 f0       	brcs	.+2      	; 0x11d2 <__addsf3x+0x96>
    11d0:	b3 cf       	rjmp	.-154    	; 0x1138 <__addsf3+0x1e>
    11d2:	93 95       	inc	r25
    11d4:	88 0f       	add	r24, r24
    11d6:	08 f0       	brcs	.+2      	; 0x11da <__addsf3x+0x9e>
    11d8:	99 27       	eor	r25, r25
    11da:	ee 0f       	add	r30, r30
    11dc:	97 95       	ror	r25
    11de:	87 95       	ror	r24
    11e0:	08 95       	ret

000011e2 <__divsf3>:
    11e2:	ac dd       	rcall	.-1192   	; 0xd3c <__divsf3x>
    11e4:	b0 ce       	rjmp	.-672    	; 0xf46 <__fp_round>

000011e6 <__fp_mpack>:
    11e6:	9f 3f       	cpi	r25, 0xFF	; 255
    11e8:	31 f0       	breq	.+12     	; 0x11f6 <__fp_mpack_finite+0xc>

000011ea <__fp_mpack_finite>:
    11ea:	91 50       	subi	r25, 0x01	; 1
    11ec:	20 f4       	brcc	.+8      	; 0x11f6 <__fp_mpack_finite+0xc>
    11ee:	87 95       	ror	r24
    11f0:	77 95       	ror	r23
    11f2:	67 95       	ror	r22
    11f4:	b7 95       	ror	r27
    11f6:	88 0f       	add	r24, r24
    11f8:	91 1d       	adc	r25, r1
    11fa:	96 95       	lsr	r25
    11fc:	87 95       	ror	r24
    11fe:	97 f9       	bld	r25, 7
    1200:	08 95       	ret

00001202 <__fp_norm2>:
    1202:	91 50       	subi	r25, 0x01	; 1
    1204:	50 40       	sbci	r21, 0x00	; 0
    1206:	66 0f       	add	r22, r22
    1208:	77 1f       	adc	r23, r23
    120a:	88 1f       	adc	r24, r24
    120c:	d2 f7       	brpl	.-12     	; 0x1202 <__fp_norm2>
    120e:	08 95       	ret

00001210 <__divmodhi4>:
    1210:	97 fb       	bst	r25, 7
    1212:	07 2e       	mov	r0, r23
    1214:	16 f4       	brtc	.+4      	; 0x121a <__divmodhi4+0xa>
    1216:	00 94       	com	r0
    1218:	06 d0       	rcall	.+12     	; 0x1226 <__divmodhi4_neg1>
    121a:	77 fd       	sbrc	r23, 7
    121c:	08 d0       	rcall	.+16     	; 0x122e <__divmodhi4_neg2>
    121e:	1a d0       	rcall	.+52     	; 0x1254 <__udivmodhi4>
    1220:	07 fc       	sbrc	r0, 7
    1222:	05 d0       	rcall	.+10     	; 0x122e <__divmodhi4_neg2>
    1224:	3e f4       	brtc	.+14     	; 0x1234 <__divmodhi4_exit>

00001226 <__divmodhi4_neg1>:
    1226:	90 95       	com	r25
    1228:	81 95       	neg	r24
    122a:	9f 4f       	sbci	r25, 0xFF	; 255
    122c:	08 95       	ret

0000122e <__divmodhi4_neg2>:
    122e:	70 95       	com	r23
    1230:	61 95       	neg	r22
    1232:	7f 4f       	sbci	r23, 0xFF	; 255

00001234 <__divmodhi4_exit>:
    1234:	08 95       	ret

00001236 <__umulhisi3>:
    1236:	a2 9f       	mul	r26, r18
    1238:	b0 01       	movw	r22, r0
    123a:	b3 9f       	mul	r27, r19
    123c:	c0 01       	movw	r24, r0
    123e:	a3 9f       	mul	r26, r19
    1240:	70 0d       	add	r23, r0
    1242:	81 1d       	adc	r24, r1
    1244:	11 24       	eor	r1, r1
    1246:	91 1d       	adc	r25, r1
    1248:	b2 9f       	mul	r27, r18
    124a:	70 0d       	add	r23, r0
    124c:	81 1d       	adc	r24, r1
    124e:	11 24       	eor	r1, r1
    1250:	91 1d       	adc	r25, r1
    1252:	08 95       	ret

00001254 <__udivmodhi4>:
    1254:	aa 1b       	sub	r26, r26
    1256:	bb 1b       	sub	r27, r27
    1258:	51 e1       	ldi	r21, 0x11	; 17
    125a:	07 c0       	rjmp	.+14     	; 0x126a <__udivmodhi4_ep>

0000125c <__udivmodhi4_loop>:
    125c:	aa 1f       	adc	r26, r26
    125e:	bb 1f       	adc	r27, r27
    1260:	a6 17       	cp	r26, r22
    1262:	b7 07       	cpc	r27, r23
    1264:	10 f0       	brcs	.+4      	; 0x126a <__udivmodhi4_ep>
    1266:	a6 1b       	sub	r26, r22
    1268:	b7 0b       	sbc	r27, r23

0000126a <__udivmodhi4_ep>:
    126a:	88 1f       	adc	r24, r24
    126c:	99 1f       	adc	r25, r25
    126e:	5a 95       	dec	r21
    1270:	a9 f7       	brne	.-22     	; 0x125c <__udivmodhi4_loop>
    1272:	80 95       	com	r24
    1274:	90 95       	com	r25
    1276:	bc 01       	movw	r22, r24
    1278:	cd 01       	movw	r24, r26
    127a:	08 95       	ret

0000127c <sprintf>:
    127c:	0f 93       	push	r16
    127e:	1f 93       	push	r17
    1280:	cf 93       	push	r28
    1282:	df 93       	push	r29
    1284:	cd b7       	in	r28, 0x3d	; 61
    1286:	de b7       	in	r29, 0x3e	; 62
    1288:	2e 97       	sbiw	r28, 0x0e	; 14
    128a:	0f b6       	in	r0, 0x3f	; 63
    128c:	f8 94       	cli
    128e:	de bf       	out	0x3e, r29	; 62
    1290:	0f be       	out	0x3f, r0	; 63
    1292:	cd bf       	out	0x3d, r28	; 61
    1294:	0e 89       	ldd	r16, Y+22	; 0x16
    1296:	1f 89       	ldd	r17, Y+23	; 0x17
    1298:	86 e0       	ldi	r24, 0x06	; 6
    129a:	8c 83       	std	Y+4, r24	; 0x04
    129c:	1a 83       	std	Y+2, r17	; 0x02
    129e:	09 83       	std	Y+1, r16	; 0x01
    12a0:	8f ef       	ldi	r24, 0xFF	; 255
    12a2:	9f e7       	ldi	r25, 0x7F	; 127
    12a4:	9e 83       	std	Y+6, r25	; 0x06
    12a6:	8d 83       	std	Y+5, r24	; 0x05
    12a8:	ae 01       	movw	r20, r28
    12aa:	46 5e       	subi	r20, 0xE6	; 230
    12ac:	5f 4f       	sbci	r21, 0xFF	; 255
    12ae:	68 8d       	ldd	r22, Y+24	; 0x18
    12b0:	79 8d       	ldd	r23, Y+25	; 0x19
    12b2:	ce 01       	movw	r24, r28
    12b4:	01 96       	adiw	r24, 0x01	; 1
    12b6:	10 d0       	rcall	.+32     	; 0x12d8 <vfprintf>
    12b8:	ef 81       	ldd	r30, Y+7	; 0x07
    12ba:	f8 85       	ldd	r31, Y+8	; 0x08
    12bc:	e0 0f       	add	r30, r16
    12be:	f1 1f       	adc	r31, r17
    12c0:	10 82       	st	Z, r1
    12c2:	2e 96       	adiw	r28, 0x0e	; 14
    12c4:	0f b6       	in	r0, 0x3f	; 63
    12c6:	f8 94       	cli
    12c8:	de bf       	out	0x3e, r29	; 62
    12ca:	0f be       	out	0x3f, r0	; 63
    12cc:	cd bf       	out	0x3d, r28	; 61
    12ce:	df 91       	pop	r29
    12d0:	cf 91       	pop	r28
    12d2:	1f 91       	pop	r17
    12d4:	0f 91       	pop	r16
    12d6:	08 95       	ret

000012d8 <vfprintf>:
    12d8:	2f 92       	push	r2
    12da:	3f 92       	push	r3
    12dc:	4f 92       	push	r4
    12de:	5f 92       	push	r5
    12e0:	6f 92       	push	r6
    12e2:	7f 92       	push	r7
    12e4:	8f 92       	push	r8
    12e6:	9f 92       	push	r9
    12e8:	af 92       	push	r10
    12ea:	bf 92       	push	r11
    12ec:	cf 92       	push	r12
    12ee:	df 92       	push	r13
    12f0:	ef 92       	push	r14
    12f2:	ff 92       	push	r15
    12f4:	0f 93       	push	r16
    12f6:	1f 93       	push	r17
    12f8:	cf 93       	push	r28
    12fa:	df 93       	push	r29
    12fc:	cd b7       	in	r28, 0x3d	; 61
    12fe:	de b7       	in	r29, 0x3e	; 62
    1300:	2b 97       	sbiw	r28, 0x0b	; 11
    1302:	0f b6       	in	r0, 0x3f	; 63
    1304:	f8 94       	cli
    1306:	de bf       	out	0x3e, r29	; 62
    1308:	0f be       	out	0x3f, r0	; 63
    130a:	cd bf       	out	0x3d, r28	; 61
    130c:	6c 01       	movw	r12, r24
    130e:	7b 01       	movw	r14, r22
    1310:	8a 01       	movw	r16, r20
    1312:	fc 01       	movw	r30, r24
    1314:	17 82       	std	Z+7, r1	; 0x07
    1316:	16 82       	std	Z+6, r1	; 0x06
    1318:	83 81       	ldd	r24, Z+3	; 0x03
    131a:	81 ff       	sbrs	r24, 1
    131c:	bf c1       	rjmp	.+894    	; 0x169c <vfprintf+0x3c4>
    131e:	ce 01       	movw	r24, r28
    1320:	01 96       	adiw	r24, 0x01	; 1
    1322:	3c 01       	movw	r6, r24
    1324:	f6 01       	movw	r30, r12
    1326:	93 81       	ldd	r25, Z+3	; 0x03
    1328:	f7 01       	movw	r30, r14
    132a:	93 fd       	sbrc	r25, 3
    132c:	85 91       	lpm	r24, Z+
    132e:	93 ff       	sbrs	r25, 3
    1330:	81 91       	ld	r24, Z+
    1332:	7f 01       	movw	r14, r30
    1334:	88 23       	and	r24, r24
    1336:	09 f4       	brne	.+2      	; 0x133a <vfprintf+0x62>
    1338:	ad c1       	rjmp	.+858    	; 0x1694 <vfprintf+0x3bc>
    133a:	85 32       	cpi	r24, 0x25	; 37
    133c:	39 f4       	brne	.+14     	; 0x134c <vfprintf+0x74>
    133e:	93 fd       	sbrc	r25, 3
    1340:	85 91       	lpm	r24, Z+
    1342:	93 ff       	sbrs	r25, 3
    1344:	81 91       	ld	r24, Z+
    1346:	7f 01       	movw	r14, r30
    1348:	85 32       	cpi	r24, 0x25	; 37
    134a:	21 f4       	brne	.+8      	; 0x1354 <vfprintf+0x7c>
    134c:	b6 01       	movw	r22, r12
    134e:	90 e0       	ldi	r25, 0x00	; 0
    1350:	d6 d1       	rcall	.+940    	; 0x16fe <fputc>
    1352:	e8 cf       	rjmp	.-48     	; 0x1324 <vfprintf+0x4c>
    1354:	91 2c       	mov	r9, r1
    1356:	21 2c       	mov	r2, r1
    1358:	31 2c       	mov	r3, r1
    135a:	ff e1       	ldi	r31, 0x1F	; 31
    135c:	f3 15       	cp	r31, r3
    135e:	d8 f0       	brcs	.+54     	; 0x1396 <vfprintf+0xbe>
    1360:	8b 32       	cpi	r24, 0x2B	; 43
    1362:	79 f0       	breq	.+30     	; 0x1382 <vfprintf+0xaa>
    1364:	38 f4       	brcc	.+14     	; 0x1374 <vfprintf+0x9c>
    1366:	80 32       	cpi	r24, 0x20	; 32
    1368:	79 f0       	breq	.+30     	; 0x1388 <vfprintf+0xb0>
    136a:	83 32       	cpi	r24, 0x23	; 35
    136c:	a1 f4       	brne	.+40     	; 0x1396 <vfprintf+0xbe>
    136e:	23 2d       	mov	r18, r3
    1370:	20 61       	ori	r18, 0x10	; 16
    1372:	1d c0       	rjmp	.+58     	; 0x13ae <vfprintf+0xd6>
    1374:	8d 32       	cpi	r24, 0x2D	; 45
    1376:	61 f0       	breq	.+24     	; 0x1390 <vfprintf+0xb8>
    1378:	80 33       	cpi	r24, 0x30	; 48
    137a:	69 f4       	brne	.+26     	; 0x1396 <vfprintf+0xbe>
    137c:	23 2d       	mov	r18, r3
    137e:	21 60       	ori	r18, 0x01	; 1
    1380:	16 c0       	rjmp	.+44     	; 0x13ae <vfprintf+0xd6>
    1382:	83 2d       	mov	r24, r3
    1384:	82 60       	ori	r24, 0x02	; 2
    1386:	38 2e       	mov	r3, r24
    1388:	e3 2d       	mov	r30, r3
    138a:	e4 60       	ori	r30, 0x04	; 4
    138c:	3e 2e       	mov	r3, r30
    138e:	2a c0       	rjmp	.+84     	; 0x13e4 <vfprintf+0x10c>
    1390:	f3 2d       	mov	r31, r3
    1392:	f8 60       	ori	r31, 0x08	; 8
    1394:	1d c0       	rjmp	.+58     	; 0x13d0 <vfprintf+0xf8>
    1396:	37 fc       	sbrc	r3, 7
    1398:	2d c0       	rjmp	.+90     	; 0x13f4 <vfprintf+0x11c>
    139a:	20 ed       	ldi	r18, 0xD0	; 208
    139c:	28 0f       	add	r18, r24
    139e:	2a 30       	cpi	r18, 0x0A	; 10
    13a0:	40 f0       	brcs	.+16     	; 0x13b2 <vfprintf+0xda>
    13a2:	8e 32       	cpi	r24, 0x2E	; 46
    13a4:	b9 f4       	brne	.+46     	; 0x13d4 <vfprintf+0xfc>
    13a6:	36 fc       	sbrc	r3, 6
    13a8:	75 c1       	rjmp	.+746    	; 0x1694 <vfprintf+0x3bc>
    13aa:	23 2d       	mov	r18, r3
    13ac:	20 64       	ori	r18, 0x40	; 64
    13ae:	32 2e       	mov	r3, r18
    13b0:	19 c0       	rjmp	.+50     	; 0x13e4 <vfprintf+0x10c>
    13b2:	36 fe       	sbrs	r3, 6
    13b4:	06 c0       	rjmp	.+12     	; 0x13c2 <vfprintf+0xea>
    13b6:	8a e0       	ldi	r24, 0x0A	; 10
    13b8:	98 9e       	mul	r9, r24
    13ba:	20 0d       	add	r18, r0
    13bc:	11 24       	eor	r1, r1
    13be:	92 2e       	mov	r9, r18
    13c0:	11 c0       	rjmp	.+34     	; 0x13e4 <vfprintf+0x10c>
    13c2:	ea e0       	ldi	r30, 0x0A	; 10
    13c4:	2e 9e       	mul	r2, r30
    13c6:	20 0d       	add	r18, r0
    13c8:	11 24       	eor	r1, r1
    13ca:	22 2e       	mov	r2, r18
    13cc:	f3 2d       	mov	r31, r3
    13ce:	f0 62       	ori	r31, 0x20	; 32
    13d0:	3f 2e       	mov	r3, r31
    13d2:	08 c0       	rjmp	.+16     	; 0x13e4 <vfprintf+0x10c>
    13d4:	8c 36       	cpi	r24, 0x6C	; 108
    13d6:	21 f4       	brne	.+8      	; 0x13e0 <vfprintf+0x108>
    13d8:	83 2d       	mov	r24, r3
    13da:	80 68       	ori	r24, 0x80	; 128
    13dc:	38 2e       	mov	r3, r24
    13de:	02 c0       	rjmp	.+4      	; 0x13e4 <vfprintf+0x10c>
    13e0:	88 36       	cpi	r24, 0x68	; 104
    13e2:	41 f4       	brne	.+16     	; 0x13f4 <vfprintf+0x11c>
    13e4:	f7 01       	movw	r30, r14
    13e6:	93 fd       	sbrc	r25, 3
    13e8:	85 91       	lpm	r24, Z+
    13ea:	93 ff       	sbrs	r25, 3
    13ec:	81 91       	ld	r24, Z+
    13ee:	7f 01       	movw	r14, r30
    13f0:	81 11       	cpse	r24, r1
    13f2:	b3 cf       	rjmp	.-154    	; 0x135a <vfprintf+0x82>
    13f4:	98 2f       	mov	r25, r24
    13f6:	9f 7d       	andi	r25, 0xDF	; 223
    13f8:	95 54       	subi	r25, 0x45	; 69
    13fa:	93 30       	cpi	r25, 0x03	; 3
    13fc:	28 f4       	brcc	.+10     	; 0x1408 <vfprintf+0x130>
    13fe:	0c 5f       	subi	r16, 0xFC	; 252
    1400:	1f 4f       	sbci	r17, 0xFF	; 255
    1402:	9f e3       	ldi	r25, 0x3F	; 63
    1404:	99 83       	std	Y+1, r25	; 0x01
    1406:	0d c0       	rjmp	.+26     	; 0x1422 <vfprintf+0x14a>
    1408:	83 36       	cpi	r24, 0x63	; 99
    140a:	31 f0       	breq	.+12     	; 0x1418 <vfprintf+0x140>
    140c:	83 37       	cpi	r24, 0x73	; 115
    140e:	71 f0       	breq	.+28     	; 0x142c <vfprintf+0x154>
    1410:	83 35       	cpi	r24, 0x53	; 83
    1412:	09 f0       	breq	.+2      	; 0x1416 <vfprintf+0x13e>
    1414:	55 c0       	rjmp	.+170    	; 0x14c0 <vfprintf+0x1e8>
    1416:	20 c0       	rjmp	.+64     	; 0x1458 <vfprintf+0x180>
    1418:	f8 01       	movw	r30, r16
    141a:	80 81       	ld	r24, Z
    141c:	89 83       	std	Y+1, r24	; 0x01
    141e:	0e 5f       	subi	r16, 0xFE	; 254
    1420:	1f 4f       	sbci	r17, 0xFF	; 255
    1422:	88 24       	eor	r8, r8
    1424:	83 94       	inc	r8
    1426:	91 2c       	mov	r9, r1
    1428:	53 01       	movw	r10, r6
    142a:	12 c0       	rjmp	.+36     	; 0x1450 <vfprintf+0x178>
    142c:	28 01       	movw	r4, r16
    142e:	f2 e0       	ldi	r31, 0x02	; 2
    1430:	4f 0e       	add	r4, r31
    1432:	51 1c       	adc	r5, r1
    1434:	f8 01       	movw	r30, r16
    1436:	a0 80       	ld	r10, Z
    1438:	b1 80       	ldd	r11, Z+1	; 0x01
    143a:	36 fe       	sbrs	r3, 6
    143c:	03 c0       	rjmp	.+6      	; 0x1444 <vfprintf+0x16c>
    143e:	69 2d       	mov	r22, r9
    1440:	70 e0       	ldi	r23, 0x00	; 0
    1442:	02 c0       	rjmp	.+4      	; 0x1448 <vfprintf+0x170>
    1444:	6f ef       	ldi	r22, 0xFF	; 255
    1446:	7f ef       	ldi	r23, 0xFF	; 255
    1448:	c5 01       	movw	r24, r10
    144a:	4e d1       	rcall	.+668    	; 0x16e8 <strnlen>
    144c:	4c 01       	movw	r8, r24
    144e:	82 01       	movw	r16, r4
    1450:	f3 2d       	mov	r31, r3
    1452:	ff 77       	andi	r31, 0x7F	; 127
    1454:	3f 2e       	mov	r3, r31
    1456:	15 c0       	rjmp	.+42     	; 0x1482 <vfprintf+0x1aa>
    1458:	28 01       	movw	r4, r16
    145a:	22 e0       	ldi	r18, 0x02	; 2
    145c:	42 0e       	add	r4, r18
    145e:	51 1c       	adc	r5, r1
    1460:	f8 01       	movw	r30, r16
    1462:	a0 80       	ld	r10, Z
    1464:	b1 80       	ldd	r11, Z+1	; 0x01
    1466:	36 fe       	sbrs	r3, 6
    1468:	03 c0       	rjmp	.+6      	; 0x1470 <vfprintf+0x198>
    146a:	69 2d       	mov	r22, r9
    146c:	70 e0       	ldi	r23, 0x00	; 0
    146e:	02 c0       	rjmp	.+4      	; 0x1474 <vfprintf+0x19c>
    1470:	6f ef       	ldi	r22, 0xFF	; 255
    1472:	7f ef       	ldi	r23, 0xFF	; 255
    1474:	c5 01       	movw	r24, r10
    1476:	2d d1       	rcall	.+602    	; 0x16d2 <strnlen_P>
    1478:	4c 01       	movw	r8, r24
    147a:	f3 2d       	mov	r31, r3
    147c:	f0 68       	ori	r31, 0x80	; 128
    147e:	3f 2e       	mov	r3, r31
    1480:	82 01       	movw	r16, r4
    1482:	33 fc       	sbrc	r3, 3
    1484:	19 c0       	rjmp	.+50     	; 0x14b8 <vfprintf+0x1e0>
    1486:	82 2d       	mov	r24, r2
    1488:	90 e0       	ldi	r25, 0x00	; 0
    148a:	88 16       	cp	r8, r24
    148c:	99 06       	cpc	r9, r25
    148e:	a0 f4       	brcc	.+40     	; 0x14b8 <vfprintf+0x1e0>
    1490:	b6 01       	movw	r22, r12
    1492:	80 e2       	ldi	r24, 0x20	; 32
    1494:	90 e0       	ldi	r25, 0x00	; 0
    1496:	33 d1       	rcall	.+614    	; 0x16fe <fputc>
    1498:	2a 94       	dec	r2
    149a:	f5 cf       	rjmp	.-22     	; 0x1486 <vfprintf+0x1ae>
    149c:	f5 01       	movw	r30, r10
    149e:	37 fc       	sbrc	r3, 7
    14a0:	85 91       	lpm	r24, Z+
    14a2:	37 fe       	sbrs	r3, 7
    14a4:	81 91       	ld	r24, Z+
    14a6:	5f 01       	movw	r10, r30
    14a8:	b6 01       	movw	r22, r12
    14aa:	90 e0       	ldi	r25, 0x00	; 0
    14ac:	28 d1       	rcall	.+592    	; 0x16fe <fputc>
    14ae:	21 10       	cpse	r2, r1
    14b0:	2a 94       	dec	r2
    14b2:	21 e0       	ldi	r18, 0x01	; 1
    14b4:	82 1a       	sub	r8, r18
    14b6:	91 08       	sbc	r9, r1
    14b8:	81 14       	cp	r8, r1
    14ba:	91 04       	cpc	r9, r1
    14bc:	79 f7       	brne	.-34     	; 0x149c <vfprintf+0x1c4>
    14be:	e1 c0       	rjmp	.+450    	; 0x1682 <vfprintf+0x3aa>
    14c0:	84 36       	cpi	r24, 0x64	; 100
    14c2:	11 f0       	breq	.+4      	; 0x14c8 <vfprintf+0x1f0>
    14c4:	89 36       	cpi	r24, 0x69	; 105
    14c6:	39 f5       	brne	.+78     	; 0x1516 <vfprintf+0x23e>
    14c8:	f8 01       	movw	r30, r16
    14ca:	37 fe       	sbrs	r3, 7
    14cc:	07 c0       	rjmp	.+14     	; 0x14dc <vfprintf+0x204>
    14ce:	60 81       	ld	r22, Z
    14d0:	71 81       	ldd	r23, Z+1	; 0x01
    14d2:	82 81       	ldd	r24, Z+2	; 0x02
    14d4:	93 81       	ldd	r25, Z+3	; 0x03
    14d6:	0c 5f       	subi	r16, 0xFC	; 252
    14d8:	1f 4f       	sbci	r17, 0xFF	; 255
    14da:	08 c0       	rjmp	.+16     	; 0x14ec <vfprintf+0x214>
    14dc:	60 81       	ld	r22, Z
    14de:	71 81       	ldd	r23, Z+1	; 0x01
    14e0:	07 2e       	mov	r0, r23
    14e2:	00 0c       	add	r0, r0
    14e4:	88 0b       	sbc	r24, r24
    14e6:	99 0b       	sbc	r25, r25
    14e8:	0e 5f       	subi	r16, 0xFE	; 254
    14ea:	1f 4f       	sbci	r17, 0xFF	; 255
    14ec:	f3 2d       	mov	r31, r3
    14ee:	ff 76       	andi	r31, 0x6F	; 111
    14f0:	3f 2e       	mov	r3, r31
    14f2:	97 ff       	sbrs	r25, 7
    14f4:	09 c0       	rjmp	.+18     	; 0x1508 <vfprintf+0x230>
    14f6:	90 95       	com	r25
    14f8:	80 95       	com	r24
    14fa:	70 95       	com	r23
    14fc:	61 95       	neg	r22
    14fe:	7f 4f       	sbci	r23, 0xFF	; 255
    1500:	8f 4f       	sbci	r24, 0xFF	; 255
    1502:	9f 4f       	sbci	r25, 0xFF	; 255
    1504:	f0 68       	ori	r31, 0x80	; 128
    1506:	3f 2e       	mov	r3, r31
    1508:	2a e0       	ldi	r18, 0x0A	; 10
    150a:	30 e0       	ldi	r19, 0x00	; 0
    150c:	a3 01       	movw	r20, r6
    150e:	33 d1       	rcall	.+614    	; 0x1776 <__ultoa_invert>
    1510:	88 2e       	mov	r8, r24
    1512:	86 18       	sub	r8, r6
    1514:	44 c0       	rjmp	.+136    	; 0x159e <vfprintf+0x2c6>
    1516:	85 37       	cpi	r24, 0x75	; 117
    1518:	31 f4       	brne	.+12     	; 0x1526 <vfprintf+0x24e>
    151a:	23 2d       	mov	r18, r3
    151c:	2f 7e       	andi	r18, 0xEF	; 239
    151e:	b2 2e       	mov	r11, r18
    1520:	2a e0       	ldi	r18, 0x0A	; 10
    1522:	30 e0       	ldi	r19, 0x00	; 0
    1524:	25 c0       	rjmp	.+74     	; 0x1570 <vfprintf+0x298>
    1526:	93 2d       	mov	r25, r3
    1528:	99 7f       	andi	r25, 0xF9	; 249
    152a:	b9 2e       	mov	r11, r25
    152c:	8f 36       	cpi	r24, 0x6F	; 111
    152e:	c1 f0       	breq	.+48     	; 0x1560 <vfprintf+0x288>
    1530:	18 f4       	brcc	.+6      	; 0x1538 <vfprintf+0x260>
    1532:	88 35       	cpi	r24, 0x58	; 88
    1534:	79 f0       	breq	.+30     	; 0x1554 <vfprintf+0x27c>
    1536:	ae c0       	rjmp	.+348    	; 0x1694 <vfprintf+0x3bc>
    1538:	80 37       	cpi	r24, 0x70	; 112
    153a:	19 f0       	breq	.+6      	; 0x1542 <vfprintf+0x26a>
    153c:	88 37       	cpi	r24, 0x78	; 120
    153e:	21 f0       	breq	.+8      	; 0x1548 <vfprintf+0x270>
    1540:	a9 c0       	rjmp	.+338    	; 0x1694 <vfprintf+0x3bc>
    1542:	e9 2f       	mov	r30, r25
    1544:	e0 61       	ori	r30, 0x10	; 16
    1546:	be 2e       	mov	r11, r30
    1548:	b4 fe       	sbrs	r11, 4
    154a:	0d c0       	rjmp	.+26     	; 0x1566 <vfprintf+0x28e>
    154c:	fb 2d       	mov	r31, r11
    154e:	f4 60       	ori	r31, 0x04	; 4
    1550:	bf 2e       	mov	r11, r31
    1552:	09 c0       	rjmp	.+18     	; 0x1566 <vfprintf+0x28e>
    1554:	34 fe       	sbrs	r3, 4
    1556:	0a c0       	rjmp	.+20     	; 0x156c <vfprintf+0x294>
    1558:	29 2f       	mov	r18, r25
    155a:	26 60       	ori	r18, 0x06	; 6
    155c:	b2 2e       	mov	r11, r18
    155e:	06 c0       	rjmp	.+12     	; 0x156c <vfprintf+0x294>
    1560:	28 e0       	ldi	r18, 0x08	; 8
    1562:	30 e0       	ldi	r19, 0x00	; 0
    1564:	05 c0       	rjmp	.+10     	; 0x1570 <vfprintf+0x298>
    1566:	20 e1       	ldi	r18, 0x10	; 16
    1568:	30 e0       	ldi	r19, 0x00	; 0
    156a:	02 c0       	rjmp	.+4      	; 0x1570 <vfprintf+0x298>
    156c:	20 e1       	ldi	r18, 0x10	; 16
    156e:	32 e0       	ldi	r19, 0x02	; 2
    1570:	f8 01       	movw	r30, r16
    1572:	b7 fe       	sbrs	r11, 7
    1574:	07 c0       	rjmp	.+14     	; 0x1584 <vfprintf+0x2ac>
    1576:	60 81       	ld	r22, Z
    1578:	71 81       	ldd	r23, Z+1	; 0x01
    157a:	82 81       	ldd	r24, Z+2	; 0x02
    157c:	93 81       	ldd	r25, Z+3	; 0x03
    157e:	0c 5f       	subi	r16, 0xFC	; 252
    1580:	1f 4f       	sbci	r17, 0xFF	; 255
    1582:	06 c0       	rjmp	.+12     	; 0x1590 <vfprintf+0x2b8>
    1584:	60 81       	ld	r22, Z
    1586:	71 81       	ldd	r23, Z+1	; 0x01
    1588:	80 e0       	ldi	r24, 0x00	; 0
    158a:	90 e0       	ldi	r25, 0x00	; 0
    158c:	0e 5f       	subi	r16, 0xFE	; 254
    158e:	1f 4f       	sbci	r17, 0xFF	; 255
    1590:	a3 01       	movw	r20, r6
    1592:	f1 d0       	rcall	.+482    	; 0x1776 <__ultoa_invert>
    1594:	88 2e       	mov	r8, r24
    1596:	86 18       	sub	r8, r6
    1598:	fb 2d       	mov	r31, r11
    159a:	ff 77       	andi	r31, 0x7F	; 127
    159c:	3f 2e       	mov	r3, r31
    159e:	36 fe       	sbrs	r3, 6
    15a0:	0d c0       	rjmp	.+26     	; 0x15bc <vfprintf+0x2e4>
    15a2:	23 2d       	mov	r18, r3
    15a4:	2e 7f       	andi	r18, 0xFE	; 254
    15a6:	a2 2e       	mov	r10, r18
    15a8:	89 14       	cp	r8, r9
    15aa:	58 f4       	brcc	.+22     	; 0x15c2 <vfprintf+0x2ea>
    15ac:	34 fe       	sbrs	r3, 4
    15ae:	0b c0       	rjmp	.+22     	; 0x15c6 <vfprintf+0x2ee>
    15b0:	32 fc       	sbrc	r3, 2
    15b2:	09 c0       	rjmp	.+18     	; 0x15c6 <vfprintf+0x2ee>
    15b4:	83 2d       	mov	r24, r3
    15b6:	8e 7e       	andi	r24, 0xEE	; 238
    15b8:	a8 2e       	mov	r10, r24
    15ba:	05 c0       	rjmp	.+10     	; 0x15c6 <vfprintf+0x2ee>
    15bc:	b8 2c       	mov	r11, r8
    15be:	a3 2c       	mov	r10, r3
    15c0:	03 c0       	rjmp	.+6      	; 0x15c8 <vfprintf+0x2f0>
    15c2:	b8 2c       	mov	r11, r8
    15c4:	01 c0       	rjmp	.+2      	; 0x15c8 <vfprintf+0x2f0>
    15c6:	b9 2c       	mov	r11, r9
    15c8:	a4 fe       	sbrs	r10, 4
    15ca:	0f c0       	rjmp	.+30     	; 0x15ea <vfprintf+0x312>
    15cc:	fe 01       	movw	r30, r28
    15ce:	e8 0d       	add	r30, r8
    15d0:	f1 1d       	adc	r31, r1
    15d2:	80 81       	ld	r24, Z
    15d4:	80 33       	cpi	r24, 0x30	; 48
    15d6:	21 f4       	brne	.+8      	; 0x15e0 <vfprintf+0x308>
    15d8:	9a 2d       	mov	r25, r10
    15da:	99 7e       	andi	r25, 0xE9	; 233
    15dc:	a9 2e       	mov	r10, r25
    15de:	09 c0       	rjmp	.+18     	; 0x15f2 <vfprintf+0x31a>
    15e0:	a2 fe       	sbrs	r10, 2
    15e2:	06 c0       	rjmp	.+12     	; 0x15f0 <vfprintf+0x318>
    15e4:	b3 94       	inc	r11
    15e6:	b3 94       	inc	r11
    15e8:	04 c0       	rjmp	.+8      	; 0x15f2 <vfprintf+0x31a>
    15ea:	8a 2d       	mov	r24, r10
    15ec:	86 78       	andi	r24, 0x86	; 134
    15ee:	09 f0       	breq	.+2      	; 0x15f2 <vfprintf+0x31a>
    15f0:	b3 94       	inc	r11
    15f2:	a3 fc       	sbrc	r10, 3
    15f4:	10 c0       	rjmp	.+32     	; 0x1616 <vfprintf+0x33e>
    15f6:	a0 fe       	sbrs	r10, 0
    15f8:	06 c0       	rjmp	.+12     	; 0x1606 <vfprintf+0x32e>
    15fa:	b2 14       	cp	r11, r2
    15fc:	80 f4       	brcc	.+32     	; 0x161e <vfprintf+0x346>
    15fe:	28 0c       	add	r2, r8
    1600:	92 2c       	mov	r9, r2
    1602:	9b 18       	sub	r9, r11
    1604:	0d c0       	rjmp	.+26     	; 0x1620 <vfprintf+0x348>
    1606:	b2 14       	cp	r11, r2
    1608:	58 f4       	brcc	.+22     	; 0x1620 <vfprintf+0x348>
    160a:	b6 01       	movw	r22, r12
    160c:	80 e2       	ldi	r24, 0x20	; 32
    160e:	90 e0       	ldi	r25, 0x00	; 0
    1610:	76 d0       	rcall	.+236    	; 0x16fe <fputc>
    1612:	b3 94       	inc	r11
    1614:	f8 cf       	rjmp	.-16     	; 0x1606 <vfprintf+0x32e>
    1616:	b2 14       	cp	r11, r2
    1618:	18 f4       	brcc	.+6      	; 0x1620 <vfprintf+0x348>
    161a:	2b 18       	sub	r2, r11
    161c:	02 c0       	rjmp	.+4      	; 0x1622 <vfprintf+0x34a>
    161e:	98 2c       	mov	r9, r8
    1620:	21 2c       	mov	r2, r1
    1622:	a4 fe       	sbrs	r10, 4
    1624:	0f c0       	rjmp	.+30     	; 0x1644 <vfprintf+0x36c>
    1626:	b6 01       	movw	r22, r12
    1628:	80 e3       	ldi	r24, 0x30	; 48
    162a:	90 e0       	ldi	r25, 0x00	; 0
    162c:	68 d0       	rcall	.+208    	; 0x16fe <fputc>
    162e:	a2 fe       	sbrs	r10, 2
    1630:	16 c0       	rjmp	.+44     	; 0x165e <vfprintf+0x386>
    1632:	a1 fc       	sbrc	r10, 1
    1634:	03 c0       	rjmp	.+6      	; 0x163c <vfprintf+0x364>
    1636:	88 e7       	ldi	r24, 0x78	; 120
    1638:	90 e0       	ldi	r25, 0x00	; 0
    163a:	02 c0       	rjmp	.+4      	; 0x1640 <vfprintf+0x368>
    163c:	88 e5       	ldi	r24, 0x58	; 88
    163e:	90 e0       	ldi	r25, 0x00	; 0
    1640:	b6 01       	movw	r22, r12
    1642:	0c c0       	rjmp	.+24     	; 0x165c <vfprintf+0x384>
    1644:	8a 2d       	mov	r24, r10
    1646:	86 78       	andi	r24, 0x86	; 134
    1648:	51 f0       	breq	.+20     	; 0x165e <vfprintf+0x386>
    164a:	a1 fe       	sbrs	r10, 1
    164c:	02 c0       	rjmp	.+4      	; 0x1652 <vfprintf+0x37a>
    164e:	8b e2       	ldi	r24, 0x2B	; 43
    1650:	01 c0       	rjmp	.+2      	; 0x1654 <vfprintf+0x37c>
    1652:	80 e2       	ldi	r24, 0x20	; 32
    1654:	a7 fc       	sbrc	r10, 7
    1656:	8d e2       	ldi	r24, 0x2D	; 45
    1658:	b6 01       	movw	r22, r12
    165a:	90 e0       	ldi	r25, 0x00	; 0
    165c:	50 d0       	rcall	.+160    	; 0x16fe <fputc>
    165e:	89 14       	cp	r8, r9
    1660:	30 f4       	brcc	.+12     	; 0x166e <vfprintf+0x396>
    1662:	b6 01       	movw	r22, r12
    1664:	80 e3       	ldi	r24, 0x30	; 48
    1666:	90 e0       	ldi	r25, 0x00	; 0
    1668:	4a d0       	rcall	.+148    	; 0x16fe <fputc>
    166a:	9a 94       	dec	r9
    166c:	f8 cf       	rjmp	.-16     	; 0x165e <vfprintf+0x386>
    166e:	8a 94       	dec	r8
    1670:	f3 01       	movw	r30, r6
    1672:	e8 0d       	add	r30, r8
    1674:	f1 1d       	adc	r31, r1
    1676:	80 81       	ld	r24, Z
    1678:	b6 01       	movw	r22, r12
    167a:	90 e0       	ldi	r25, 0x00	; 0
    167c:	40 d0       	rcall	.+128    	; 0x16fe <fputc>
    167e:	81 10       	cpse	r8, r1
    1680:	f6 cf       	rjmp	.-20     	; 0x166e <vfprintf+0x396>
    1682:	22 20       	and	r2, r2
    1684:	09 f4       	brne	.+2      	; 0x1688 <vfprintf+0x3b0>
    1686:	4e ce       	rjmp	.-868    	; 0x1324 <vfprintf+0x4c>
    1688:	b6 01       	movw	r22, r12
    168a:	80 e2       	ldi	r24, 0x20	; 32
    168c:	90 e0       	ldi	r25, 0x00	; 0
    168e:	37 d0       	rcall	.+110    	; 0x16fe <fputc>
    1690:	2a 94       	dec	r2
    1692:	f7 cf       	rjmp	.-18     	; 0x1682 <vfprintf+0x3aa>
    1694:	f6 01       	movw	r30, r12
    1696:	86 81       	ldd	r24, Z+6	; 0x06
    1698:	97 81       	ldd	r25, Z+7	; 0x07
    169a:	02 c0       	rjmp	.+4      	; 0x16a0 <vfprintf+0x3c8>
    169c:	8f ef       	ldi	r24, 0xFF	; 255
    169e:	9f ef       	ldi	r25, 0xFF	; 255
    16a0:	2b 96       	adiw	r28, 0x0b	; 11
    16a2:	0f b6       	in	r0, 0x3f	; 63
    16a4:	f8 94       	cli
    16a6:	de bf       	out	0x3e, r29	; 62
    16a8:	0f be       	out	0x3f, r0	; 63
    16aa:	cd bf       	out	0x3d, r28	; 61
    16ac:	df 91       	pop	r29
    16ae:	cf 91       	pop	r28
    16b0:	1f 91       	pop	r17
    16b2:	0f 91       	pop	r16
    16b4:	ff 90       	pop	r15
    16b6:	ef 90       	pop	r14
    16b8:	df 90       	pop	r13
    16ba:	cf 90       	pop	r12
    16bc:	bf 90       	pop	r11
    16be:	af 90       	pop	r10
    16c0:	9f 90       	pop	r9
    16c2:	8f 90       	pop	r8
    16c4:	7f 90       	pop	r7
    16c6:	6f 90       	pop	r6
    16c8:	5f 90       	pop	r5
    16ca:	4f 90       	pop	r4
    16cc:	3f 90       	pop	r3
    16ce:	2f 90       	pop	r2
    16d0:	08 95       	ret

000016d2 <strnlen_P>:
    16d2:	fc 01       	movw	r30, r24
    16d4:	05 90       	lpm	r0, Z+
    16d6:	61 50       	subi	r22, 0x01	; 1
    16d8:	70 40       	sbci	r23, 0x00	; 0
    16da:	01 10       	cpse	r0, r1
    16dc:	d8 f7       	brcc	.-10     	; 0x16d4 <strnlen_P+0x2>
    16de:	80 95       	com	r24
    16e0:	90 95       	com	r25
    16e2:	8e 0f       	add	r24, r30
    16e4:	9f 1f       	adc	r25, r31
    16e6:	08 95       	ret

000016e8 <strnlen>:
    16e8:	fc 01       	movw	r30, r24
    16ea:	61 50       	subi	r22, 0x01	; 1
    16ec:	70 40       	sbci	r23, 0x00	; 0
    16ee:	01 90       	ld	r0, Z+
    16f0:	01 10       	cpse	r0, r1
    16f2:	d8 f7       	brcc	.-10     	; 0x16ea <strnlen+0x2>
    16f4:	80 95       	com	r24
    16f6:	90 95       	com	r25
    16f8:	8e 0f       	add	r24, r30
    16fa:	9f 1f       	adc	r25, r31
    16fc:	08 95       	ret

000016fe <fputc>:
    16fe:	0f 93       	push	r16
    1700:	1f 93       	push	r17
    1702:	cf 93       	push	r28
    1704:	df 93       	push	r29
    1706:	fb 01       	movw	r30, r22
    1708:	23 81       	ldd	r18, Z+3	; 0x03
    170a:	21 fd       	sbrc	r18, 1
    170c:	03 c0       	rjmp	.+6      	; 0x1714 <fputc+0x16>
    170e:	8f ef       	ldi	r24, 0xFF	; 255
    1710:	9f ef       	ldi	r25, 0xFF	; 255
    1712:	2c c0       	rjmp	.+88     	; 0x176c <fputc+0x6e>
    1714:	22 ff       	sbrs	r18, 2
    1716:	16 c0       	rjmp	.+44     	; 0x1744 <fputc+0x46>
    1718:	46 81       	ldd	r20, Z+6	; 0x06
    171a:	57 81       	ldd	r21, Z+7	; 0x07
    171c:	24 81       	ldd	r18, Z+4	; 0x04
    171e:	35 81       	ldd	r19, Z+5	; 0x05
    1720:	42 17       	cp	r20, r18
    1722:	53 07       	cpc	r21, r19
    1724:	44 f4       	brge	.+16     	; 0x1736 <fputc+0x38>
    1726:	a0 81       	ld	r26, Z
    1728:	b1 81       	ldd	r27, Z+1	; 0x01
    172a:	9d 01       	movw	r18, r26
    172c:	2f 5f       	subi	r18, 0xFF	; 255
    172e:	3f 4f       	sbci	r19, 0xFF	; 255
    1730:	31 83       	std	Z+1, r19	; 0x01
    1732:	20 83       	st	Z, r18
    1734:	8c 93       	st	X, r24
    1736:	26 81       	ldd	r18, Z+6	; 0x06
    1738:	37 81       	ldd	r19, Z+7	; 0x07
    173a:	2f 5f       	subi	r18, 0xFF	; 255
    173c:	3f 4f       	sbci	r19, 0xFF	; 255
    173e:	37 83       	std	Z+7, r19	; 0x07
    1740:	26 83       	std	Z+6, r18	; 0x06
    1742:	14 c0       	rjmp	.+40     	; 0x176c <fputc+0x6e>
    1744:	8b 01       	movw	r16, r22
    1746:	ec 01       	movw	r28, r24
    1748:	fb 01       	movw	r30, r22
    174a:	00 84       	ldd	r0, Z+8	; 0x08
    174c:	f1 85       	ldd	r31, Z+9	; 0x09
    174e:	e0 2d       	mov	r30, r0
    1750:	19 95       	eicall
    1752:	89 2b       	or	r24, r25
    1754:	e1 f6       	brne	.-72     	; 0x170e <fputc+0x10>
    1756:	d8 01       	movw	r26, r16
    1758:	16 96       	adiw	r26, 0x06	; 6
    175a:	8d 91       	ld	r24, X+
    175c:	9c 91       	ld	r25, X
    175e:	17 97       	sbiw	r26, 0x07	; 7
    1760:	01 96       	adiw	r24, 0x01	; 1
    1762:	17 96       	adiw	r26, 0x07	; 7
    1764:	9c 93       	st	X, r25
    1766:	8e 93       	st	-X, r24
    1768:	16 97       	sbiw	r26, 0x06	; 6
    176a:	ce 01       	movw	r24, r28
    176c:	df 91       	pop	r29
    176e:	cf 91       	pop	r28
    1770:	1f 91       	pop	r17
    1772:	0f 91       	pop	r16
    1774:	08 95       	ret

00001776 <__ultoa_invert>:
    1776:	fa 01       	movw	r30, r20
    1778:	aa 27       	eor	r26, r26
    177a:	28 30       	cpi	r18, 0x08	; 8
    177c:	51 f1       	breq	.+84     	; 0x17d2 <__ultoa_invert+0x5c>
    177e:	20 31       	cpi	r18, 0x10	; 16
    1780:	81 f1       	breq	.+96     	; 0x17e2 <__ultoa_invert+0x6c>
    1782:	e8 94       	clt
    1784:	6f 93       	push	r22
    1786:	6e 7f       	andi	r22, 0xFE	; 254
    1788:	6e 5f       	subi	r22, 0xFE	; 254
    178a:	7f 4f       	sbci	r23, 0xFF	; 255
    178c:	8f 4f       	sbci	r24, 0xFF	; 255
    178e:	9f 4f       	sbci	r25, 0xFF	; 255
    1790:	af 4f       	sbci	r26, 0xFF	; 255
    1792:	b1 e0       	ldi	r27, 0x01	; 1
    1794:	3e d0       	rcall	.+124    	; 0x1812 <__ultoa_invert+0x9c>
    1796:	b4 e0       	ldi	r27, 0x04	; 4
    1798:	3c d0       	rcall	.+120    	; 0x1812 <__ultoa_invert+0x9c>
    179a:	67 0f       	add	r22, r23
    179c:	78 1f       	adc	r23, r24
    179e:	89 1f       	adc	r24, r25
    17a0:	9a 1f       	adc	r25, r26
    17a2:	a1 1d       	adc	r26, r1
    17a4:	68 0f       	add	r22, r24
    17a6:	79 1f       	adc	r23, r25
    17a8:	8a 1f       	adc	r24, r26
    17aa:	91 1d       	adc	r25, r1
    17ac:	a1 1d       	adc	r26, r1
    17ae:	6a 0f       	add	r22, r26
    17b0:	71 1d       	adc	r23, r1
    17b2:	81 1d       	adc	r24, r1
    17b4:	91 1d       	adc	r25, r1
    17b6:	a1 1d       	adc	r26, r1
    17b8:	20 d0       	rcall	.+64     	; 0x17fa <__ultoa_invert+0x84>
    17ba:	09 f4       	brne	.+2      	; 0x17be <__ultoa_invert+0x48>
    17bc:	68 94       	set
    17be:	3f 91       	pop	r19
    17c0:	2a e0       	ldi	r18, 0x0A	; 10
    17c2:	26 9f       	mul	r18, r22
    17c4:	11 24       	eor	r1, r1
    17c6:	30 19       	sub	r19, r0
    17c8:	30 5d       	subi	r19, 0xD0	; 208
    17ca:	31 93       	st	Z+, r19
    17cc:	de f6       	brtc	.-74     	; 0x1784 <__ultoa_invert+0xe>
    17ce:	cf 01       	movw	r24, r30
    17d0:	08 95       	ret
    17d2:	46 2f       	mov	r20, r22
    17d4:	47 70       	andi	r20, 0x07	; 7
    17d6:	40 5d       	subi	r20, 0xD0	; 208
    17d8:	41 93       	st	Z+, r20
    17da:	b3 e0       	ldi	r27, 0x03	; 3
    17dc:	0f d0       	rcall	.+30     	; 0x17fc <__ultoa_invert+0x86>
    17de:	c9 f7       	brne	.-14     	; 0x17d2 <__ultoa_invert+0x5c>
    17e0:	f6 cf       	rjmp	.-20     	; 0x17ce <__ultoa_invert+0x58>
    17e2:	46 2f       	mov	r20, r22
    17e4:	4f 70       	andi	r20, 0x0F	; 15
    17e6:	40 5d       	subi	r20, 0xD0	; 208
    17e8:	4a 33       	cpi	r20, 0x3A	; 58
    17ea:	18 f0       	brcs	.+6      	; 0x17f2 <__ultoa_invert+0x7c>
    17ec:	49 5d       	subi	r20, 0xD9	; 217
    17ee:	31 fd       	sbrc	r19, 1
    17f0:	40 52       	subi	r20, 0x20	; 32
    17f2:	41 93       	st	Z+, r20
    17f4:	02 d0       	rcall	.+4      	; 0x17fa <__ultoa_invert+0x84>
    17f6:	a9 f7       	brne	.-22     	; 0x17e2 <__ultoa_invert+0x6c>
    17f8:	ea cf       	rjmp	.-44     	; 0x17ce <__ultoa_invert+0x58>
    17fa:	b4 e0       	ldi	r27, 0x04	; 4
    17fc:	a6 95       	lsr	r26
    17fe:	97 95       	ror	r25
    1800:	87 95       	ror	r24
    1802:	77 95       	ror	r23
    1804:	67 95       	ror	r22
    1806:	ba 95       	dec	r27
    1808:	c9 f7       	brne	.-14     	; 0x17fc <__ultoa_invert+0x86>
    180a:	00 97       	sbiw	r24, 0x00	; 0
    180c:	61 05       	cpc	r22, r1
    180e:	71 05       	cpc	r23, r1
    1810:	08 95       	ret
    1812:	9b 01       	movw	r18, r22
    1814:	ac 01       	movw	r20, r24
    1816:	0a 2e       	mov	r0, r26
    1818:	06 94       	lsr	r0
    181a:	57 95       	ror	r21
    181c:	47 95       	ror	r20
    181e:	37 95       	ror	r19
    1820:	27 95       	ror	r18
    1822:	ba 95       	dec	r27
    1824:	c9 f7       	brne	.-14     	; 0x1818 <__ultoa_invert+0xa2>
    1826:	62 0f       	add	r22, r18
    1828:	73 1f       	adc	r23, r19
    182a:	84 1f       	adc	r24, r20
    182c:	95 1f       	adc	r25, r21
    182e:	a0 1d       	adc	r26, r0
    1830:	08 95       	ret

00001832 <_exit>:
    1832:	f8 94       	cli

00001834 <__stop_program>:
    1834:	ff cf       	rjmp	.-2      	; 0x1834 <__stop_program>
